TN:
SF:/Users/runner/work/qtpokit/qtpokit/include/qtpokit/abstractpokitservice.h
FNF:0
FNH:0
DA:50,12
LF:1
LH:1
end_of_record
TN:
SF:/Users/runner/work/qtpokit/qtpokit/include/qtpokit/calibrationservice.h
FNF:0
FNH:0
DA:24,0
DA:50,3
LF:2
LH:1
end_of_record
TN:
SF:/Users/runner/work/qtpokit/qtpokit/include/qtpokit/dataloggerservice.h
FNF:0
FNH:0
DA:24,26
DA:142,14
LF:2
LH:2
end_of_record
TN:
SF:/Users/runner/work/qtpokit/qtpokit/include/qtpokit/deviceinfoservice.h
FNF:0
FNH:0
DA:67,12
LF:1
LH:1
end_of_record
TN:
SF:/Users/runner/work/qtpokit/qtpokit/include/qtpokit/dsoservice.h
FNF:0
FNH:0
DA:24,25
DA:140,15
LF:2
LH:2
end_of_record
TN:
SF:/Users/runner/work/qtpokit/qtpokit/include/qtpokit/genericaccessservice.h
FNF:0
FNH:0
DA:24,0
DA:59,8
LF:2
LH:1
end_of_record
TN:
SF:/Users/runner/work/qtpokit/qtpokit/include/qtpokit/multimeterservice.h
FNF:0
FNH:0
DA:24,45
DA:144,9
LF:2
LH:2
end_of_record
TN:
SF:/Users/runner/work/qtpokit/qtpokit/include/qtpokit/pokitdevice.h
FNF:0
FNH:0
DA:33,19
DA:65,42
LF:2
LH:2
end_of_record
TN:
SF:/Users/runner/work/qtpokit/qtpokit/include/qtpokit/pokitdiscoveryagent.h
FNF:0
FNH:0
DA:22,0
DA:52,11
LF:2
LH:1
end_of_record
TN:
SF:/Users/runner/work/qtpokit/qtpokit/include/qtpokit/statusservice.h
FNF:0
FNH:0
DA:24,0
DA:39,26
DA:112,18
LF:3
LH:2
end_of_record
TN:
SF:/Users/runner/work/qtpokit/qtpokit/src/app/abstractcommand.cpp
FN:23,_ZN15AbstractCommandC2EP7QObject
FN:23,_ZN15AbstractCommandC1EP7QObject
FN:36,_ZZN15AbstractCommandC4EP7QObjectENKUlRKN30QBluetoothDeviceDiscoveryAgent5ErrorEE_clES5_
FN:54,_ZNK15AbstractCommand15requiredOptionsERK18QCommandLineParser
FN:81,_ZNK15AbstractCommand16supportedOptionsERK18QCommandLineParser
FN:103,_ZN15AbstractCommand14escapeCsvFieldERK7QString
FN:129,_ZN15AbstractCommand15parseMicroValueERK7QStringS2_j
FN:190,_ZN15AbstractCommand15parseMilliValueERK7QStringS2_j
FN:239,_ZN15AbstractCommand15parseWholeValueERK7QStringS2_
FN:297,_ZN15AbstractCommand14processOptionsERK18QCommandLineParser
FNDA:11,_ZN15AbstractCommand15parseWholeValueERK7QStringS2_
FNDA:0,_ZZN15AbstractCommandC4EP7QObjectENKUlRKN30QBluetoothDeviceDiscoveryAgent5ErrorEE_clES5_
FNDA:32,_ZNK15AbstractCommand16supportedOptionsERK18QCommandLineParser
FNDA:24,_ZN15AbstractCommand15parseMilliValueERK7QStringS2_j
FNDA:0,_ZN15AbstractCommandC1EP7QObject
FNDA:12,_ZN15AbstractCommand15parseMicroValueERK7QStringS2_j
FNDA:64,_ZNK15AbstractCommand15requiredOptionsERK18QCommandLineParser
FNDA:31,_ZN15AbstractCommandC2EP7QObject
FNDA:4,_ZN15AbstractCommand14escapeCsvFieldERK7QString
FNDA:31,_ZN15AbstractCommand14processOptionsERK18QCommandLineParser
FNF:10
FNH:8
DA:23,31
DA:24,31
DA:26,31
DA:28,31
DA:30,31
DA:36,0
DA:37,0
DA:38,0
DA:39,0
DA:40,31
DA:54,64
DA:57,64
DA:81,32
DA:83,192
DA:88,192
DA:103,4
DA:105,3
DA:106,9
DA:108,2
DA:109,2
DA:129,12
DA:135,12
DA:136,5
DA:141,12
DA:142,1
DA:147,12
DA:148,1
DA:153,12
DA:154,12
DA:155,12
DA:156,6
DA:157,4
DA:159,6
DA:163,6
DA:164,6
DA:165,4
DA:166,3
DA:168,4
DA:172,12
DA:190,24
DA:196,24
DA:197,8
DA:202,24
DA:203,4
DA:208,24
DA:209,24
DA:210,24
DA:211,13
DA:212,9
DA:214,13
DA:218,11
DA:219,11
DA:220,6
DA:221,3
DA:223,6
DA:227,24
DA:239,11
DA:243,11
DA:244,8
DA:249,11
DA:250,3
DA:252,8
DA:253,3
DA:258,11
DA:259,11
DA:260,11
DA:261,6
DA:265,5
DA:266,5
DA:267,3
DA:271,11
DA:297,31
DA:300,31
DA:301,31
DA:302,90
DA:303,59
DA:304,2
DA:310,31
DA:311,2
DA:315,62
DA:316,62
DA:318,26
DA:319,13
DA:320,3
DA:321,10
DA:322,3
DA:323,7
DA:324,3
DA:326,4
DA:328,13
DA:331,31
DA:332,13
DA:334,13
DA:335,12
DA:337,7
DA:338,7
DA:339,0
DA:344,31
DA:345,62
DA:346,31
DA:347,1
DA:350,31
LF:102
LH:97
end_of_record
TN:
SF:/Users/runner/work/qtpokit/qtpokit/src/app/abstractcommand.h
FN:42,_ZN15AbstractCommand2lcEv
FNDA:52,_ZN15AbstractCommand2lcEv
FNF:1
FNH:1
DA:14,31
DA:42,52
LF:2
LH:2
end_of_record
TN:
SF:/Users/runner/work/qtpokit/qtpokit/src/app/calibratecommand.cpp
FN:21,_ZN16CalibrateCommandC1EP7QObject
FN:21,_ZN16CalibrateCommandC2EP7QObject
FN:27,_ZNK16CalibrateCommand15requiredOptionsERK18QCommandLineParser
FN:34,_ZNK16CalibrateCommand16supportedOptionsERK18QCommandLineParser
FN:45,_ZN16CalibrateCommand14processOptionsERK18QCommandLineParser
FN:68,_ZN16CalibrateCommand10getServiceEv
FN:85,_ZN16CalibrateCommand24serviceDetailsDiscoveredEv
FN:97,_ZN16CalibrateCommand21temperatureCalibratedEv
FNDA:0,_ZN16CalibrateCommandC2EP7QObject
FNDA:0,_ZN16CalibrateCommand14processOptionsERK18QCommandLineParser
FNDA:0,_ZN16CalibrateCommand10getServiceEv
FNDA:0,_ZN16CalibrateCommand24serviceDetailsDiscoveredEv
FNDA:0,_ZNK16CalibrateCommand15requiredOptionsERK18QCommandLineParser
FNDA:0,_ZNK16CalibrateCommand16supportedOptionsERK18QCommandLineParser
FNDA:0,_ZN16CalibrateCommand21temperatureCalibratedEv
FNDA:0,_ZN16CalibrateCommandC1EP7QObject
FNF:8
FNH:0
DA:21,0
DA:22,0
DA:25,0
DA:27,0
DA:29,0
DA:31,0
DA:34,0
DA:36,0
DA:45,0
DA:47,0
DA:48,0
DA:52,0
DA:54,0
DA:55,0
DA:56,0
DA:58,0
DA:61,0
DA:68,0
DA:71,0
DA:72,0
DA:74,0
DA:77,0
DA:85,0
DA:87,0
DA:88,0
DA:89,0
DA:90,0
DA:92,0
DA:97,0
DA:99,0
DA:100,0
DA:101,0
DA:102,0
DA:103,0
DA:104,0
DA:105,0
DA:106,0
DA:107,0
DA:108,0
DA:110,0
DA:111,0
LF:41
LH:0
end_of_record
TN:
SF:/Users/runner/work/qtpokit/qtpokit/src/app/devicecommand.cpp
FN:19,_ZN13DeviceCommandC2EP7QObject
FN:19,_ZN13DeviceCommandC1EP7QObject
FN:28,_ZN13DeviceCommand5startEv
FN:41,_ZN13DeviceCommand10disconnectEi
FN:64,_ZN13DeviceCommand15controllerErrorEN20QLowEnergyController5ErrorE
FN:77,_ZN13DeviceCommand18deviceDisconnectedEv
FN:92,_ZN13DeviceCommand12serviceErrorEN17QLowEnergyService12ServiceErrorE
FN:103,_ZN13DeviceCommand24serviceDetailsDiscoveredEv
FN:112,_ZN13DeviceCommand16deviceDiscoveredERK20QBluetoothDeviceInfo
FN:161,_ZN13DeviceCommand23deviceDiscoveryFinishedEv
FNDA:0,_ZN13DeviceCommand10disconnectEi
FNDA:0,_ZN13DeviceCommand15controllerErrorEN20QLowEnergyController5ErrorE
FNDA:0,_ZN13DeviceCommand18deviceDisconnectedEv
FNDA:0,_ZN13DeviceCommand16deviceDiscoveredERK20QBluetoothDeviceInfo
FNDA:0,_ZN13DeviceCommandC2EP7QObject
FNDA:0,_ZN13DeviceCommand5startEv
FNDA:0,_ZN13DeviceCommandC1EP7QObject
FNDA:0,_ZN13DeviceCommand23deviceDiscoveryFinishedEv
FNDA:0,_ZN13DeviceCommand24serviceDetailsDiscoveredEv
FNDA:0,_ZN13DeviceCommand12serviceErrorEN17QLowEnergyService12ServiceErrorE
FNF:10
FNH:0
DA:19,0
DA:20,0
DA:23,0
DA:28,0
DA:30,0
DA:31,0
DA:32,0
DA:33,0
DA:34,0
DA:41,0
DA:43,0
DA:46,0
DA:47,0
DA:48,0
DA:64,0
DA:66,0
DA:67,0
DA:68,0
DA:77,0
DA:79,0
DA:80,0
DA:81,0
DA:82,0
DA:92,0
DA:94,0
DA:95,0
DA:96,0
DA:103,0
DA:105,0
DA:106,0
DA:112,0
DA:114,0
DA:115,0
DA:116,0
DA:117,0
DA:120,0
DA:121,0
DA:122,0
DA:124,0
DA:125,0
DA:126,0
DA:128,0
DA:129,0
DA:131,0
DA:139,0
DA:142,0
DA:144,0
DA:147,0
DA:148,0
DA:149,0
DA:150,0
DA:153,0
DA:154,0
DA:161,0
DA:163,0
DA:164,0
DA:165,0
DA:166,0
DA:167,0
DA:169,0
LF:60
LH:0
end_of_record
TN:
SF:/Users/runner/work/qtpokit/qtpokit/src/app/dsocommand.cpp
FN:20,_ZN10DsoCommandC2EP7QObject
FN:20,_ZN10DsoCommandC1EP7QObject
FN:28,_ZNK10DsoCommand15requiredOptionsERK18QCommandLineParser
FN:36,_ZNK10DsoCommand16supportedOptionsERK18QCommandLineParser
FN:52,_ZN10DsoCommand14processOptionsERK18QCommandLineParser
FN:164,_ZN10DsoCommand10getServiceEv
FN:181,_ZN10DsoCommand24serviceDetailsDiscoveredEv
FN:195,_ZN10DsoCommand11lowestRangeEN10DsoService4ModeEj
FN:228,_ZN10DsoCommand18lowestCurrentRangeEj
FN:242,_ZN10DsoCommand18lowestVoltageRangeEj
FN:258,_ZN10DsoCommand15settingsWrittenEv
FN:270,_ZN10DsoCommand12metadataReadERKN10DsoService8MetadataE
FN:286,_ZN10DsoCommand13outputSamplesERK7QVectorIsE
FNDA:0,_ZN10DsoCommand24serviceDetailsDiscoveredEv
FNDA:0,_ZN10DsoCommandC1EP7QObject
FNDA:0,_ZN10DsoCommand13outputSamplesERK7QVectorIsE
FNDA:0,_ZNK10DsoCommand16supportedOptionsERK18QCommandLineParser
FNDA:0,_ZNK10DsoCommand15requiredOptionsERK18QCommandLineParser
FNDA:0,_ZN10DsoCommand15settingsWrittenEv
FNDA:0,_ZN10DsoCommand18lowestCurrentRangeEj
FNDA:0,_ZN10DsoCommand11lowestRangeEN10DsoService4ModeEj
FNDA:0,_ZN10DsoCommand14processOptionsERK18QCommandLineParser
FNDA:0,_ZN10DsoCommandC2EP7QObject
FNDA:0,_ZN10DsoCommand12metadataReadERKN10DsoService8MetadataE
FNDA:0,_ZN10DsoCommand18lowestVoltageRangeEj
FNDA:0,_ZN10DsoCommand10getServiceEv
FNF:13
FNH:0
DA:20,0
DA:21,0
DA:23,0
DA:26,0
DA:28,0
DA:30,0
DA:33,0
DA:36,0
DA:38,0
DA:43,0
DA:52,0
DA:54,0
DA:55,0
DA:60,0
DA:61,0
DA:62,0
DA:63,0
DA:64,0
DA:65,0
DA:66,0
DA:67,0
DA:68,0
DA:70,0
DA:71,0
DA:77,0
DA:79,0
DA:85,0
DA:87,0
DA:90,0
DA:92,0
DA:95,0
DA:96,0
DA:97,0
DA:99,0
DA:101,0
DA:104,0
DA:105,0
DA:106,0
DA:107,0
DA:108,0
DA:110,0
DA:112,0
DA:115,0
DA:116,0
DA:117,0
DA:118,0
DA:119,0
DA:120,0
DA:121,0
DA:122,0
DA:124,0
DA:125,0
DA:127,0
DA:130,0
DA:131,0
DA:132,0
DA:136,0
DA:137,0
DA:138,0
DA:139,0
DA:140,0
DA:142,0
DA:144,0
DA:147,0
DA:148,0
DA:149,0
DA:150,0
DA:151,0
DA:153,0
DA:155,0
DA:157,0
DA:164,0
DA:167,0
DA:168,0
DA:170,0
DA:173,0
DA:181,0
DA:183,0
DA:184,0
DA:185,0
DA:186,0
DA:187,0
DA:188,0
DA:189,0
DA:195,0
DA:199,0
DA:200,0
DA:201,0
DA:204,0
DA:206,0
DA:208,0
DA:210,0
DA:212,0
DA:213,0
DA:216,0
DA:228,0
DA:230,0
DA:231,0
DA:232,0
DA:233,0
DA:234,0
DA:242,0
DA:244,0
DA:245,0
DA:246,0
DA:247,0
DA:248,0
DA:249,0
DA:258,0
DA:260,0
DA:261,0
DA:262,0
DA:263,0
DA:264,0
DA:265,0
DA:270,0
DA:272,0
DA:273,0
DA:274,0
DA:275,0
DA:276,0
DA:277,0
DA:278,0
DA:279,0
DA:280,0
DA:281,0
DA:286,0
DA:289,0
DA:290,0
DA:291,0
DA:292,0
DA:293,0
DA:294,0
DA:295,0
DA:296,0
DA:298,0
DA:300,0
DA:301,0
DA:302,0
DA:303,0
DA:305,0
DA:306,0
DA:308,0
DA:310,0
DA:311,0
DA:312,0
DA:316,0
DA:317,0
DA:318,0
DA:319,0
DA:320,0
DA:321,0
DA:323,0
DA:325,0
DA:326,0
DA:327,0
DA:328,0
DA:330,0
LF:158
LH:0
end_of_record
TN:
SF:/Users/runner/work/qtpokit/qtpokit/src/app/flashledcommand.cpp
FN:18,_ZN15FlashLedCommandC1EP7QObject
FN:18,_ZN15FlashLedCommandC2EP7QObject
FN:23,_ZNK15FlashLedCommand15requiredOptionsERK18QCommandLineParser
FN:29,_ZNK15FlashLedCommand16supportedOptionsERK18QCommandLineParser
FN:40,_ZN15FlashLedCommand14processOptionsERK18QCommandLineParser
FN:55,_ZN15FlashLedCommand10getServiceEv
FN:72,_ZN15FlashLedCommand24serviceDetailsDiscoveredEv
FN:84,_ZN15FlashLedCommand16deviceLedFlashedEv
FNDA:0,_ZN15FlashLedCommandC2EP7QObject
FNDA:0,_ZNK15FlashLedCommand15requiredOptionsERK18QCommandLineParser
FNDA:0,_ZNK15FlashLedCommand16supportedOptionsERK18QCommandLineParser
FNDA:0,_ZN15FlashLedCommand16deviceLedFlashedEv
FNDA:0,_ZN15FlashLedCommand24serviceDetailsDiscoveredEv
FNDA:0,_ZN15FlashLedCommandC1EP7QObject
FNDA:0,_ZN15FlashLedCommand14processOptionsERK18QCommandLineParser
FNDA:0,_ZN15FlashLedCommand10getServiceEv
FNF:8
FNH:0
DA:18,0
DA:21,0
DA:23,0
DA:25,0
DA:26,0
DA:29,0
DA:31,0
DA:40,0
DA:42,0
DA:55,0
DA:58,0
DA:59,0
DA:61,0
DA:64,0
DA:72,0
DA:74,0
DA:75,0
DA:76,0
DA:77,0
DA:79,0
DA:84,0
DA:86,0
DA:87,0
DA:88,0
DA:89,0
DA:90,0
DA:91,0
DA:92,0
DA:93,0
DA:94,0
DA:95,0
DA:97,0
DA:98,0
LF:33
LH:0
end_of_record
TN:
SF:/Users/runner/work/qtpokit/qtpokit/src/app/infocommand.cpp
FN:21,_ZN11InfoCommandC2EP7QObject
FN:21,_ZN11InfoCommandC1EP7QObject
FN:26,_ZNK11InfoCommand15requiredOptionsERK18QCommandLineParser
FN:32,_ZNK11InfoCommand16supportedOptionsERK18QCommandLineParser
FN:43,_ZN11InfoCommand14processOptionsERK18QCommandLineParser
FN:58,_ZN11InfoCommand10getServiceEv
FN:73,_ZN11InfoCommand24serviceDetailsDiscoveredEv
FNDA:0,_ZNK11InfoCommand16supportedOptionsERK18QCommandLineParser
FNDA:0,_ZNK11InfoCommand15requiredOptionsERK18QCommandLineParser
FNDA:0,_ZN11InfoCommandC2EP7QObject
FNDA:0,_ZN11InfoCommand14processOptionsERK18QCommandLineParser
FNDA:0,_ZN11InfoCommandC1EP7QObject
FNDA:0,_ZN11InfoCommand10getServiceEv
FNDA:0,_ZN11InfoCommand24serviceDetailsDiscoveredEv
FNF:7
FNH:0
DA:21,0
DA:24,0
DA:26,0
DA:28,0
DA:29,0
DA:32,0
DA:34,0
DA:43,0
DA:45,0
DA:58,0
DA:61,0
DA:62,0
DA:65,0
DA:73,0
DA:75,0
DA:76,0
DA:77,0
DA:78,0
DA:79,0
DA:80,0
DA:81,0
DA:83,0
DA:90,0
DA:93,0
DA:94,0
DA:95,0
DA:96,0
DA:97,0
DA:98,0
DA:99,0
DA:100,0
DA:102,0
DA:103,0
DA:105,0
DA:106,0
DA:108,0
DA:109,0
DA:111,0
DA:112,0
DA:114,0
DA:115,0
DA:117,0
DA:118,0
DA:120,0
DA:121,0
DA:122,0
DA:123,0
DA:124,0
DA:125,0
DA:127,0
DA:128,0
LF:51
LH:0
end_of_record
TN:
SF:/Users/runner/work/qtpokit/qtpokit/src/app/loggerfetchcommand.cpp
FN:21,_ZN18LoggerFetchCommandC2EP7QObject
FN:21,_ZN18LoggerFetchCommandC1EP7QObject
FN:32,_ZN18LoggerFetchCommand10getServiceEv
FN:49,_ZN18LoggerFetchCommand24serviceDetailsDiscoveredEv
FN:61,_ZN18LoggerFetchCommand12metadataReadERKN17DataLoggerService8MetadataE
FN:81,_ZN18LoggerFetchCommand13outputSamplesERK7QVectorIsE
FNDA:0,_ZN18LoggerFetchCommand10getServiceEv
FNDA:0,_ZN18LoggerFetchCommand12metadataReadERKN17DataLoggerService8MetadataE
FNDA:0,_ZN18LoggerFetchCommandC2EP7QObject
FNDA:0,_ZN18LoggerFetchCommand24serviceDetailsDiscoveredEv
FNDA:0,_ZN18LoggerFetchCommand13outputSamplesERK7QVectorIsE
FNDA:0,_ZN18LoggerFetchCommandC1EP7QObject
FNF:6
FNH:0
DA:21,0
DA:22,0
DA:25,0
DA:32,0
DA:35,0
DA:36,0
DA:38,0
DA:39,0
DA:41,0
DA:49,0
DA:51,0
DA:52,0
DA:53,0
DA:54,0
DA:55,0
DA:56,0
DA:61,0
DA:63,0
DA:64,0
DA:65,0
DA:66,0
DA:67,0
DA:68,0
DA:69,0
DA:70,0
DA:71,0
DA:72,0
DA:73,0
DA:74,0
DA:75,0
DA:76,0
DA:81,0
DA:84,0
DA:85,0
DA:86,0
DA:87,0
DA:88,0
DA:89,0
DA:90,0
DA:91,0
DA:93,0
DA:95,0
DA:96,0
DA:97,0
DA:98,0
DA:99,0
DA:101,0
DA:102,0
DA:104,0
DA:106,0
DA:107,0
DA:108,0
DA:113,0
DA:114,0
DA:115,0
DA:116,0
DA:117,0
DA:118,0
DA:120,0
DA:121,0
DA:122,0
DA:123,0
DA:124,0
DA:125,0
DA:126,0
DA:128,0
LF:66
LH:0
end_of_record
TN:
SF:/Users/runner/work/qtpokit/qtpokit/src/app/loggerstartcommand.cpp
FN:21,_ZN18LoggerStartCommandC2EP7QObject
FN:21,_ZN18LoggerStartCommandC1EP7QObject
FN:29,_ZNK18LoggerStartCommand15requiredOptionsERK18QCommandLineParser
FN:37,_ZNK18LoggerStartCommand16supportedOptionsERK18QCommandLineParser
FN:51,_ZN18LoggerStartCommand14processOptionsERK18QCommandLineParser
FN:133,_ZN18LoggerStartCommand10getServiceEv
FN:150,_ZN18LoggerStartCommand24serviceDetailsDiscoveredEv
FN:164,_ZN18LoggerStartCommand11lowestRangeEN17DataLoggerService4ModeEj
FN:197,_ZN18LoggerStartCommand18lowestCurrentRangeEj
FN:211,_ZN18LoggerStartCommand18lowestVoltageRangeEj
FN:227,_ZN18LoggerStartCommand15settingsWrittenEv
FNDA:0,_ZN18LoggerStartCommandC2EP7QObject
FNDA:0,_ZN18LoggerStartCommandC1EP7QObject
FNDA:0,_ZN18LoggerStartCommand14processOptionsERK18QCommandLineParser
FNDA:0,_ZN18LoggerStartCommand18lowestCurrentRangeEj
FNDA:0,_ZN18LoggerStartCommand10getServiceEv
FNDA:0,_ZN18LoggerStartCommand18lowestVoltageRangeEj
FNDA:0,_ZN18LoggerStartCommand24serviceDetailsDiscoveredEv
FNDA:0,_ZNK18LoggerStartCommand16supportedOptionsERK18QCommandLineParser
FNDA:0,_ZNK18LoggerStartCommand15requiredOptionsERK18QCommandLineParser
FNDA:0,_ZN18LoggerStartCommand15settingsWrittenEv
FNDA:0,_ZN18LoggerStartCommand11lowestRangeEN17DataLoggerService4ModeEj
FNF:11
FNH:0
DA:21,0
DA:22,0
DA:24,0
DA:27,0
DA:29,0
DA:31,0
DA:34,0
DA:37,0
DA:39,0
DA:42,0
DA:51,0
DA:53,0
DA:54,0
DA:59,0
DA:60,0
DA:61,0
DA:62,0
DA:63,0
DA:64,0
DA:65,0
DA:66,0
DA:67,0
DA:69,0
DA:70,0
DA:75,0
DA:77,0
DA:83,0
DA:85,0
DA:88,0
DA:90,0
DA:93,0
DA:94,0
DA:95,0
DA:97,0
DA:99,0
DA:102,0
DA:103,0
DA:104,0
DA:105,0
DA:106,0
DA:108,0
DA:110,0
DA:113,0
DA:114,0
DA:115,0
DA:116,0
DA:118,0
DA:119,0
DA:120,0
DA:122,0
DA:124,0
DA:126,0
DA:133,0
DA:136,0
DA:137,0
DA:139,0
DA:142,0
DA:150,0
DA:152,0
DA:153,0
DA:154,0
DA:155,0
DA:156,0
DA:157,0
DA:158,0
DA:164,0
DA:168,0
DA:169,0
DA:170,0
DA:173,0
DA:175,0
DA:177,0
DA:179,0
DA:181,0
DA:182,0
DA:185,0
DA:197,0
DA:199,0
DA:200,0
DA:201,0
DA:202,0
DA:203,0
DA:211,0
DA:213,0
DA:214,0
DA:215,0
DA:216,0
DA:217,0
DA:218,0
DA:227,0
DA:229,0
DA:230,0
DA:231,0
DA:232,0
DA:233,0
DA:234,0
DA:235,0
DA:236,0
DA:237,0
DA:238,0
DA:239,0
DA:241,0
DA:242,0
LF:103
LH:0
end_of_record
TN:
SF:/Users/runner/work/qtpokit/qtpokit/src/app/loggerstopcommand.cpp
FN:20,_ZN17LoggerStopCommandC2EP7QObject
FN:20,_ZN17LoggerStopCommandC1EP7QObject
FN:31,_ZN17LoggerStopCommand10getServiceEv
FN:48,_ZN17LoggerStopCommand24serviceDetailsDiscoveredEv
FN:58,_ZN17LoggerStopCommand15settingsWrittenEv
FNDA:0,_ZN17LoggerStopCommand15settingsWrittenEv
FNDA:0,_ZN17LoggerStopCommand24serviceDetailsDiscoveredEv
FNDA:0,_ZN17LoggerStopCommandC2EP7QObject
FNDA:0,_ZN17LoggerStopCommand10getServiceEv
FNDA:0,_ZN17LoggerStopCommandC1EP7QObject
FNF:5
FNH:0
DA:20,0
DA:21,0
DA:24,0
DA:31,0
DA:34,0
DA:35,0
DA:37,0
DA:40,0
DA:48,0
DA:50,0
DA:51,0
DA:52,0
DA:53,0
DA:58,0
DA:60,0
DA:61,0
DA:62,0
DA:63,0
DA:64,0
DA:65,0
DA:66,0
DA:67,0
DA:68,0
DA:69,0
DA:70,0
DA:72,0
DA:73,0
LF:27
LH:0
end_of_record
TN:
SF:/Users/runner/work/qtpokit/qtpokit/src/app/metercommand.cpp
FN:20,_ZN12MeterCommandC1EP7QObject
FN:20,_ZN12MeterCommandC2EP7QObject
FN:30,_ZNK12MeterCommand15requiredOptionsERK18QCommandLineParser
FN:37,_ZNK12MeterCommand16supportedOptionsERK18QCommandLineParser
FN:52,_ZN12MeterCommand14processOptionsERK18QCommandLineParser
FN:156,_ZN12MeterCommand10getServiceEv
FN:173,_ZN12MeterCommand24serviceDetailsDiscoveredEv
FN:187,_ZN12MeterCommand11lowestRangeEN17MultimeterService4ModeEj
FN:219,_ZN12MeterCommand18lowestCurrentRangeEj
FN:233,_ZN12MeterCommand21lowestResistanceRangeEj
FN:250,_ZN12MeterCommand18lowestVoltageRangeEj
FN:266,_ZN12MeterCommand15settingsWrittenEv
FN:277,_ZN12MeterCommand13outputReadingERKN17MultimeterService7ReadingE
FNDA:0,_ZN12MeterCommand18lowestCurrentRangeEj
FNDA:0,_ZN12MeterCommandC2EP7QObject
FNDA:0,_ZN12MeterCommand18lowestVoltageRangeEj
FNDA:0,_ZN12MeterCommand24serviceDetailsDiscoveredEv
FNDA:0,_ZN12MeterCommand11lowestRangeEN17MultimeterService4ModeEj
FNDA:0,_ZN12MeterCommand14processOptionsERK18QCommandLineParser
FNDA:0,_ZNK12MeterCommand16supportedOptionsERK18QCommandLineParser
FNDA:0,_ZN12MeterCommand10getServiceEv
FNDA:0,_ZN12MeterCommand15settingsWrittenEv
FNDA:0,_ZN12MeterCommand13outputReadingERKN17MultimeterService7ReadingE
FNDA:0,_ZNK12MeterCommand15requiredOptionsERK18QCommandLineParser
FNDA:0,_ZN12MeterCommandC1EP7QObject
FNDA:0,_ZN12MeterCommand21lowestResistanceRangeEj
FNF:13
FNH:0
DA:20,0
DA:21,0
DA:25,0
DA:28,0
DA:30,0
DA:32,0
DA:34,0
DA:37,0
DA:39,0
DA:43,0
DA:52,0
DA:54,0
DA:55,0
DA:60,0
DA:61,0
DA:62,0
DA:63,0
DA:64,0
DA:65,0
DA:66,0
DA:67,0
DA:68,0
DA:69,0
DA:70,0
DA:71,0
DA:72,0
DA:73,0
DA:74,0
DA:75,0
DA:76,0
DA:78,0
DA:79,0
DA:83,0
DA:84,0
DA:85,0
DA:86,0
DA:87,0
DA:89,0
DA:91,0
DA:94,0
DA:95,0
DA:96,0
DA:98,0
DA:99,0
DA:101,0
DA:102,0
DA:104,0
DA:106,0
DA:107,0
DA:109,0
DA:110,0
DA:112,0
DA:114,0
DA:115,0
DA:116,0
DA:117,0
DA:119,0
DA:121,0
DA:122,0
DA:123,0
DA:125,0
DA:127,0
DA:128,0
DA:129,0
DA:131,0
DA:134,0
DA:137,0
DA:138,0
DA:139,0
DA:140,0
DA:141,0
DA:142,0
DA:144,0
DA:146,0
DA:149,0
DA:156,0
DA:159,0
DA:160,0
DA:162,0
DA:165,0
DA:173,0
DA:175,0
DA:176,0
DA:177,0
DA:178,0
DA:179,0
DA:180,0
DA:181,0
DA:187,0
DA:191,0
DA:192,0
DA:194,0
DA:196,0
DA:198,0
DA:200,0
DA:201,0
DA:203,0
DA:204,0
DA:207,0
DA:219,0
DA:221,0
DA:222,0
DA:223,0
DA:224,0
DA:225,0
DA:233,0
DA:235,0
DA:236,0
DA:237,0
DA:238,0
DA:239,0
DA:240,0
DA:241,0
DA:242,0
DA:250,0
DA:252,0
DA:253,0
DA:254,0
DA:255,0
DA:256,0
DA:257,0
DA:266,0
DA:268,0
DA:269,0
DA:271,0
DA:272,0
DA:277,0
DA:280,0
DA:281,0
DA:282,0
DA:285,0
DA:291,0
DA:292,0
DA:293,0
DA:295,0
DA:296,0
DA:297,0
DA:299,0
DA:300,0
DA:303,0
DA:304,0
DA:306,0
DA:307,0
DA:308,0
DA:309,0
DA:310,0
DA:313,0
DA:316,0
DA:317,0
DA:318,0
DA:320,0
DA:322,0
DA:323,0
DA:324,0
DA:325,0
DA:326,0
DA:328,0
DA:329,0
DA:330,0
DA:331,0
DA:332,0
DA:333,0
DA:334,0
DA:335,0
DA:336,0
DA:342,0
DA:344,0
DA:345,0
DA:347,0
DA:351,0
DA:355,0
DA:356,0
DA:357,0
DA:358,0
DA:359,0
DA:360,0
DA:365,0
DA:367,0
DA:372,0
DA:374,0
DA:375,0
DA:377,0
DA:378,0
DA:379,0
DA:380,0
DA:382,0
DA:383,0
DA:385,0
DA:387,0
DA:390,0
DA:391,0
DA:393,0
LF:192
LH:0
end_of_record
TN:
SF:/Users/runner/work/qtpokit/qtpokit/src/app/scancommand.cpp
FN:23,_ZN11ScanCommandC1EP7QObject
FN:23,_ZN11ScanCommandC2EP7QObject
FN:31,_ZNK11ScanCommand15requiredOptionsERK18QCommandLineParser
FN:36,_ZNK11ScanCommand16supportedOptionsERK18QCommandLineParser
FN:43,_ZN11ScanCommand14processOptionsERK18QCommandLineParser
FN:56,_ZN11ScanCommand5startEv
FN:67,_ZN11ScanCommand16deviceDiscoveredERK20QBluetoothDeviceInfo
FN:104,_ZN11ScanCommand23deviceDiscoveryFinishedEv
FN:113,_ZN11ScanCommand6toJsonERK20QBluetoothDeviceInfo
FN:149,_ZN11ScanCommand6toJsonERK6QFlagsIN20QBluetoothDeviceInfo17CoreConfigurationEE
FN:169,_ZN11ScanCommand6toJsonERKN20QBluetoothDeviceInfo16MajorDeviceClassE
FN:182,_ZN11ScanCommand6toJsonERKN20QBluetoothDeviceInfo16MajorDeviceClassEh
FN:191,_ZN11ScanCommand6toJsonERK6QFlagsIN20QBluetoothDeviceInfo12ServiceClassEE
FN:212,_ZN11ScanCommand6toJsonERK5QListI14QBluetoothUuidE
FN:225,_ZN11ScanCommand6toJsonERK10QMultiHashIt10QByteArrayE
FN:252,_ZN11ScanCommand8toStringERKN20QBluetoothDeviceInfo16MajorDeviceClassE
FN:284,_ZN11ScanCommand8toStringERKN20QBluetoothDeviceInfo16MajorDeviceClassEh
FNDA:0,_ZNK11ScanCommand16supportedOptionsERK18QCommandLineParser
FNDA:0,_ZNK11ScanCommand15requiredOptionsERK18QCommandLineParser
FNDA:0,_ZN11ScanCommand14processOptionsERK18QCommandLineParser
FNDA:0,_ZN11ScanCommand5startEv
FNDA:11,_ZN11ScanCommand6toJsonERK6QFlagsIN20QBluetoothDeviceInfo12ServiceClassEE
FNDA:0,_ZN11ScanCommand6toJsonERK10QMultiHashIt10QByteArrayE
FNDA:7,_ZN11ScanCommand6toJsonERK20QBluetoothDeviceInfo
FNDA:7,_ZN11ScanCommand6toJsonERK6QFlagsIN20QBluetoothDeviceInfo17CoreConfigurationEE
FNDA:0,_ZN11ScanCommand23deviceDiscoveryFinishedEv
FNDA:6,_ZN11ScanCommand6toJsonERK5QListI14QBluetoothUuidE
FNDA:0,_ZN11ScanCommand16deviceDiscoveredERK20QBluetoothDeviceInfo
FNDA:34,_ZN11ScanCommand8toStringERKN20QBluetoothDeviceInfo16MajorDeviceClassE
FNDA:0,_ZN11ScanCommandC1EP7QObject
FNDA:0,_ZN11ScanCommandC2EP7QObject
FNDA:98,_ZN11ScanCommand6toJsonERKN20QBluetoothDeviceInfo16MajorDeviceClassEh
FNDA:190,_ZN11ScanCommand8toStringERKN20QBluetoothDeviceInfo16MajorDeviceClassEh
FNDA:20,_ZN11ScanCommand6toJsonERKN20QBluetoothDeviceInfo16MajorDeviceClassE
FNF:17
FNH:8
DA:23,0
DA:29,0
DA:31,0
DA:33,0
DA:36,0
DA:38,0
DA:39,0
DA:43,0
DA:45,0
DA:56,0
DA:59,0
DA:60,0
DA:61,0
DA:67,0
DA:69,0
DA:71,0
DA:72,0
DA:74,0
DA:77,0
DA:78,0
DA:79,0
DA:80,0
DA:81,0
DA:82,0
DA:84,0
DA:86,0
DA:104,0
DA:106,0
DA:107,0
DA:108,0
DA:113,7
DA:114,7
DA:115,1
DA:118,12
DA:119,12
DA:120,6
DA:121,6
DA:122,12
DA:123,12
DA:124,6
DA:125,108
DA:126,6
DA:127,6
DA:129,6
DA:130,10
DA:137,6
DA:138,2
DA:140,6
DA:141,2
DA:144,6
DA:149,7
DA:151,7
DA:155,1
DA:156,5
DA:157,2
DA:160,7
DA:161,0
DA:169,20
DA:171,20
DA:172,40
DA:173,20
DA:182,98
DA:184,98
DA:185,196
DA:186,98
DA:191,11
DA:193,11
DA:197,3
DA:198,3
DA:199,3
DA:200,2
DA:201,2
DA:202,2
DA:203,2
DA:204,2
DA:206,11
DA:207,0
DA:212,6
DA:214,6
DA:215,18
DA:216,12
DA:218,6
DA:219,0
DA:225,0
DA:227,0
DA:228,0
DA:230,0
DA:234,0
DA:236,0
DA:237,0
DA:238,0
DA:240,0
DA:241,0
DA:242,0
DA:243,0
DA:252,34
DA:257,34
DA:273,6
DA:284,190
DA:289,190
DA:290,9
DA:291,9
DA:293,16
DA:294,16
DA:302,14
DA:303,14
DA:311,18
DA:315,18
DA:324,36
DA:325,36
DA:343,22
DA:344,22
DA:355,12
DA:356,12
DA:357,10
DA:358,8
DA:359,6
DA:360,4
DA:362,14
DA:363,14
DA:370,18
DA:371,18
DA:378,18
DA:379,18
DA:393,37
DA:394,0
LF:126
LH:80
end_of_record
TN:
SF:/Users/runner/work/qtpokit/qtpokit/src/app/setnamecommand.cpp
FN:18,_ZN14SetNameCommandC2EP7QObject
FN:18,_ZN14SetNameCommandC1EP7QObject
FN:23,_ZNK14SetNameCommand15requiredOptionsERK18QCommandLineParser
FN:30,_ZNK14SetNameCommand16supportedOptionsERK18QCommandLineParser
FN:41,_ZN14SetNameCommand14processOptionsERK18QCommandLineParser
FN:62,_ZN14SetNameCommand10getServiceEv
FN:79,_ZN14SetNameCommand24serviceDetailsDiscoveredEv
FN:90,_ZN14SetNameCommand17deivceNameWrittenEv
FNDA:0,_ZNK14SetNameCommand15requiredOptionsERK18QCommandLineParser
FNDA:0,_ZN14SetNameCommand17deivceNameWrittenEv
FNDA:0,_ZN14SetNameCommand14processOptionsERK18QCommandLineParser
FNDA:0,_ZN14SetNameCommandC2EP7QObject
FNDA:0,_ZN14SetNameCommand24serviceDetailsDiscoveredEv
FNDA:0,_ZNK14SetNameCommand16supportedOptionsERK18QCommandLineParser
FNDA:0,_ZN14SetNameCommandC1EP7QObject
FNDA:0,_ZN14SetNameCommand10getServiceEv
FNF:8
FNH:0
DA:18,0
DA:21,0
DA:23,0
DA:25,0
DA:27,0
DA:30,0
DA:32,0
DA:41,0
DA:43,0
DA:44,0
DA:48,0
DA:49,0
DA:50,0
DA:51,0
DA:52,0
DA:62,0
DA:65,0
DA:66,0
DA:68,0
DA:71,0
DA:79,0
DA:81,0
DA:82,0
DA:83,0
DA:85,0
DA:90,0
DA:92,0
DA:93,0
DA:94,0
DA:95,0
DA:96,0
DA:97,0
DA:98,0
DA:99,0
DA:100,0
DA:101,0
DA:103,0
DA:104,0
LF:38
LH:0
end_of_record
TN:
SF:/Users/runner/work/qtpokit/qtpokit/src/app/statuscommand.cpp
FN:21,_ZN13StatusCommandC1EP7QObject
FN:21,_ZN13StatusCommandC2EP7QObject
FN:26,_ZNK13StatusCommand15requiredOptionsERK18QCommandLineParser
FN:32,_ZNK13StatusCommand16supportedOptionsERK18QCommandLineParser
FN:43,_ZN13StatusCommand14processOptionsERK18QCommandLineParser
FN:58,_ZN13StatusCommand10getServiceEv
FN:73,_ZN13StatusCommand24serviceDetailsDiscoveredEv
FNDA:0,_ZNK13StatusCommand16supportedOptionsERK18QCommandLineParser
FNDA:0,_ZNK13StatusCommand15requiredOptionsERK18QCommandLineParser
FNDA:0,_ZN13StatusCommandC1EP7QObject
FNDA:0,_ZN13StatusCommand14processOptionsERK18QCommandLineParser
FNDA:0,_ZN13StatusCommand10getServiceEv
FNDA:0,_ZN13StatusCommand24serviceDetailsDiscoveredEv
FNDA:0,_ZN13StatusCommandC2EP7QObject
FNF:7
FNH:0
DA:21,0
DA:24,0
DA:26,0
DA:28,0
DA:29,0
DA:32,0
DA:34,0
DA:43,0
DA:45,0
DA:58,0
DA:61,0
DA:62,0
DA:65,0
DA:73,0
DA:75,0
DA:76,0
DA:77,0
DA:78,0
DA:79,0
DA:80,0
DA:81,0
DA:82,0
DA:83,0
DA:87,0
DA:88,0
DA:89,0
DA:93,0
DA:99,0
DA:102,0
DA:103,0
DA:104,0
DA:105,0
DA:107,0
DA:109,0
DA:112,0
DA:113,0
DA:114,0
DA:115,0
DA:116,0
DA:117,0
DA:118,0
DA:119,0
DA:120,0
DA:121,0
DA:123,0
DA:125,0
DA:126,0
DA:127,0
DA:128,0
DA:129,0
DA:130,0
DA:131,0
DA:132,0
DA:133,0
DA:134,0
DA:135,0
DA:136,0
DA:137,0
DA:139,0
DA:140,0
DA:143,0
DA:145,0
DA:146,0
LF:63
LH:0
end_of_record
TN:
SF:/Users/runner/work/qtpokit/qtpokit/src/lib/abstractpokitservice.cpp
FN:26,_ZN20AbstractPokitServiceC1EP27AbstractPokitServicePrivateP7QObject
FN:26,_ZN20AbstractPokitServiceC2EP27AbstractPokitServicePrivateP7QObject
FN:37,_ZN20AbstractPokitServiceD0Ev
FN:37,_ZN20AbstractPokitServiceD2Ev
FN:37,_ZN20AbstractPokitServiceD1Ev
FN:59,_ZNK20AbstractPokitService12autoDiscoverEv
FN:74,_ZN20AbstractPokitService15setAutoDiscoverEb
FN:83,_ZN20AbstractPokitService7serviceEv
FN:92,_ZNK20AbstractPokitService7serviceEv
FN:132,_ZN27AbstractPokitServicePrivateC2ERK14QBluetoothUuidP20QLowEnergyControllerP20AbstractPokitService
FN:132,_ZN27AbstractPokitServicePrivateC1ERK14QBluetoothUuidP20QLowEnergyControllerP20AbstractPokitService
FN:159,_ZN27AbstractPokitServicePrivate19createServiceObjectEv
FN:191,_ZZN27AbstractPokitServicePrivate19createServiceObjectEvENKUlRK20QLowEnergyDescriptorRK10QByteArrayE_clES2_S5_
FN:198,_ZZN27AbstractPokitServicePrivate19createServiceObjectEvENKUlRK20QLowEnergyDescriptorRK10QByteArrayE0_clES2_S5_
FN:231,_ZNK27AbstractPokitServicePrivate17getCharacteristicERK14QBluetoothUuid
FN:276,_ZN27AbstractPokitServicePrivate18readCharacteristicERK14QBluetoothUuid
FN:296,_ZN27AbstractPokitServicePrivate32enableCharacteristicNotificatonsERK14QBluetoothUuid
FN:331,_ZN27AbstractPokitServicePrivate33disableCharacteristicNotificatonsERK14QBluetoothUuid
FN:366,_ZN27AbstractPokitServicePrivate9checkSizeERK7QStringRK10QByteArrayiib
FN:391,_ZN27AbstractPokitServicePrivate11toHexStringERK10QByteArrayi
FN:407,_ZN27AbstractPokitServicePrivate9connectedEv
FN:428,_ZN27AbstractPokitServicePrivate17discoveryFinishedEv
FN:451,_ZN27AbstractPokitServicePrivate13errorOccurredEN17QLowEnergyService12ServiceErrorE
FN:465,_ZN27AbstractPokitServicePrivate17serviceDiscoveredERK14QBluetoothUuid
FN:481,_ZN27AbstractPokitServicePrivate12stateChangedEN17QLowEnergyService12ServiceStateE
FN:505,_ZN27AbstractPokitServicePrivate18characteristicReadERK24QLowEnergyCharacteristicRK10QByteArray
FN:520,_ZN27AbstractPokitServicePrivate21characteristicWrittenERK24QLowEnergyCharacteristicRK10QByteArray
FN:536,_ZN27AbstractPokitServicePrivate21characteristicChangedERK24QLowEnergyCharacteristicRK10QByteArray
FNDA:2,_ZN20AbstractPokitService15setAutoDiscoverEb
FNDA:27,_ZN27AbstractPokitServicePrivate18readCharacteristicERK14QBluetoothUuid
FNDA:95,_ZN20AbstractPokitServiceC2EP27AbstractPokitServicePrivateP7QObject
FNDA:78,_ZN27AbstractPokitServicePrivateC2ERK14QBluetoothUuidP20QLowEnergyControllerP20AbstractPokitService
FNDA:3,_ZNK20AbstractPokitService12autoDiscoverEv
FNDA:7,_ZN27AbstractPokitServicePrivate21characteristicWrittenERK24QLowEnergyCharacteristicRK10QByteArray
FNDA:9,_ZN27AbstractPokitServicePrivate19createServiceObjectEv
FNDA:3,_ZN27AbstractPokitServicePrivate12stateChangedEN17QLowEnergyService12ServiceStateE
FNDA:1,_ZN27AbstractPokitServicePrivate17discoveryFinishedEv
FNDA:0,_ZZN27AbstractPokitServicePrivate19createServiceObjectEvENKUlRK20QLowEnergyDescriptorRK10QByteArrayE0_clES2_S5_
FNDA:1,_ZN27AbstractPokitServicePrivate9connectedEv
FNDA:6,_ZN27AbstractPokitServicePrivate33disableCharacteristicNotificatonsERK14QBluetoothUuid
FNDA:6,_ZN20AbstractPokitService7serviceEv
FNDA:28,_ZN27AbstractPokitServicePrivate11toHexStringERK10QByteArrayi
FNDA:1,_ZN27AbstractPokitServicePrivate13errorOccurredEN17QLowEnergyService12ServiceErrorE
FNDA:17,_ZN27AbstractPokitServicePrivateC1ERK14QBluetoothUuidP20QLowEnergyControllerP20AbstractPokitService
FNDA:0,_ZZN27AbstractPokitServicePrivate19createServiceObjectEvENKUlRK20QLowEnergyDescriptorRK10QByteArrayE_clES2_S5_
FNDA:4,_ZN27AbstractPokitServicePrivate21characteristicChangedERK24QLowEnergyCharacteristicRK10QByteArray
FNDA:0,_ZN20AbstractPokitServiceD1Ev
FNDA:72,_ZNK27AbstractPokitServicePrivate17getCharacteristicERK14QBluetoothUuid
FNDA:0,_ZN20AbstractPokitServiceD0Ev
FNDA:7,_ZN27AbstractPokitServicePrivate18characteristicReadERK24QLowEnergyCharacteristicRK10QByteArray
FNDA:6,_ZN27AbstractPokitServicePrivate17serviceDiscoveredERK14QBluetoothUuid
FNDA:34,_ZN27AbstractPokitServicePrivate9checkSizeERK7QStringRK10QByteArrayiib
FNDA:6,_ZN27AbstractPokitServicePrivate32enableCharacteristicNotificatonsERK14QBluetoothUuid
FNDA:88,_ZN20AbstractPokitServiceD2Ev
FNDA:1,_ZNK20AbstractPokitService7serviceEv
FNDA:0,_ZN20AbstractPokitServiceC1EP27AbstractPokitServicePrivateP7QObject
FNF:28
FNH:23
DA:26,95
DA:27,95
DA:28,95
DA:31,95
DA:37,88
DA:39,88
DA:40,88
DA:59,3
DA:62,3
DA:74,2
DA:77,2
DA:78,2
DA:83,6
DA:86,6
DA:92,1
DA:95,1
DA:132,95
DA:133,95
DA:134,95
DA:135,95
DA:137,95
DA:138,2
DA:141,2
DA:144,2
DA:147,2
DA:150,95
DA:159,9
DA:161,9
DA:165,5
DA:166,1
DA:167,1
DA:170,4
DA:171,0
DA:172,0
DA:175,4
DA:176,4
DA:179,0
DA:181,0
DA:183,0
DA:185,0
DA:187,0
DA:190,0
DA:191,0
DA:192,0
DA:193,0
DA:195,0
DA:197,0
DA:198,0
DA:199,0
DA:200,0
DA:202,0
DA:204,0
DA:212,0
DA:213,0
DA:231,72
DA:233,72
DA:234,72
DA:235,0
DA:236,72
DA:239,0
DA:240,0
DA:241,0
DA:244,0
DA:251,0
DA:252,0
DA:253,0
DA:254,0
DA:255,0
DA:258,0
DA:259,0
DA:260,0
DA:261,0
DA:262,0
DA:276,27
DA:278,27
DA:279,27
DA:282,0
DA:283,0
DA:284,0
DA:286,27
DA:296,6
DA:298,6
DA:299,0
DA:300,6
DA:301,6
DA:306,0
DA:307,0
DA:308,0
DA:309,0
DA:310,0
DA:313,0
DA:317,0
DA:320,0
DA:321,6
DA:331,6
DA:333,6
DA:334,0
DA:335,6
DA:336,6
DA:341,0
DA:342,0
DA:343,0
DA:344,0
DA:345,0
DA:348,0
DA:352,0
DA:355,0
DA:356,6
DA:366,34
DA:370,34
DA:371,26
DA:372,26
DA:373,13
DA:375,21
DA:376,14
DA:377,7
DA:378,7
DA:391,28
DA:394,75
DA:395,3
DA:396,31
DA:397,140
DA:407,1
DA:409,1
DA:410,2
DA:411,1
DA:414,0
DA:415,0
DA:416,0
DA:417,0
DA:418,0
DA:428,1
DA:430,1
DA:431,2
DA:432,1
DA:435,0
DA:436,0
DA:437,0
DA:439,0
DA:440,0
DA:442,0
DA:451,1
DA:454,1
DA:455,1
DA:456,1
DA:465,6
DA:467,6
DA:468,3
DA:469,3
DA:471,6
DA:481,3
DA:483,3
DA:485,3
DA:493,1
DA:494,1
DA:496,3
DA:505,7
DA:508,7
DA:509,0
DA:510,0
DA:511,7
DA:520,7
DA:523,7
DA:524,0
DA:525,0
DA:526,7
DA:536,4
DA:539,4
DA:540,0
DA:541,0
DA:542,4
LF:171
LH:98
end_of_record
TN:
SF:/Users/runner/work/qtpokit/qtpokit/src/lib/abstractpokitservice_p.h
FN:29,_ZN27AbstractPokitServicePrivate2lcEv
FNDA:237,_ZN27AbstractPokitServicePrivate2lcEv
FNF:1
FNH:1
DA:26,22
DA:29,237
DA:68,2
LF:3
LH:3
end_of_record
TN:
SF:/Users/runner/work/qtpokit/qtpokit/src/lib/calibrationservice.cpp
FN:34,_ZN18CalibrationServiceC1EP20QLowEnergyControllerP7QObject
FN:34,_ZN18CalibrationServiceC2EP20QLowEnergyControllerP7QObject
FN:44,_ZN18CalibrationServiceC1EP25CalibrationServicePrivateP7QObject
FN:44,_ZN18CalibrationServiceC2EP25CalibrationServicePrivateP7QObject
FN:55,_ZN18CalibrationServiceD1Ev
FN:55,_ZN18CalibrationServiceD2Ev
FN:55,_ZN18CalibrationServiceD0Ev
FN:66,_ZN18CalibrationService19readCharacteristicsEv
FN:80,_ZN18CalibrationService20calibrateTemperatureEf
FN:116,_ZN25CalibrationServicePrivateC1EP20QLowEnergyControllerP18CalibrationService
FN:116,_ZN25CalibrationServicePrivateC2EP20QLowEnergyControllerP18CalibrationService
FN:127,_ZN25CalibrationServicePrivate17encodeTemperatureEf
FN:139,_ZN25CalibrationServicePrivate21characteristicWrittenERK24QLowEnergyCharacteristicRK10QByteArray
FNDA:0,_ZN25CalibrationServicePrivateC1EP20QLowEnergyControllerP18CalibrationService
FNDA:0,_ZN25CalibrationServicePrivateC2EP20QLowEnergyControllerP18CalibrationService
FNDA:2,_ZN18CalibrationService20calibrateTemperatureEf
FNDA:5,_ZN25CalibrationServicePrivate17encodeTemperatureEf
FNDA:1,_ZN25CalibrationServicePrivate21characteristicWrittenERK24QLowEnergyCharacteristicRK10QByteArray
FNDA:0,_ZN18CalibrationServiceD2Ev
FNDA:1,_ZN18CalibrationService19readCharacteristicsEv
FNDA:0,_ZN18CalibrationServiceD0Ev
FNDA:0,_ZN18CalibrationServiceC1EP25CalibrationServicePrivateP7QObject
FNDA:0,_ZN18CalibrationServiceC2EP20QLowEnergyControllerP7QObject
FNDA:4,_ZN18CalibrationServiceC1EP20QLowEnergyControllerP7QObject
FNDA:3,_ZN18CalibrationServiceD1Ev
FNDA:0,_ZN18CalibrationServiceC2EP25CalibrationServicePrivateP7QObject
FNF:13
FNH:6
DA:34,4
DA:35,4
DA:38,4
DA:44,0
DA:45,0
DA:46,0
DA:49,0
DA:55,3
DA:58,3
DA:66,1
DA:69,1
DA:70,1
DA:80,2
DA:85,2
DA:86,2
DA:90,0
DA:91,0
DA:92,0
DA:93,0
DA:94,0
DA:95,2
DA:116,0
DA:117,4
DA:118,4
DA:121,0
DA:127,5
DA:130,5
DA:132,5
DA:133,0
DA:139,1
DA:142,1
DA:145,1
DA:146,0
DA:147,0
DA:150,3
DA:151,1
LF:36
LH:22
end_of_record
TN:
SF:/Users/runner/work/qtpokit/qtpokit/src/lib/calibrationservice_p.h
FNF:0
FNH:0
DA:20,1
DA:32,1
LF:2
LH:2
end_of_record
TN:
SF:/Users/runner/work/qtpokit/qtpokit/src/lib/dataloggerservice.cpp
FN:51,_ZN17DataLoggerService8toStringERKNS_4ModeE
FN:68,_ZN17DataLoggerService8toStringERKNS_12VoltageRangeE
FN:90,_ZN17DataLoggerService8minValueERKNS_12VoltageRangeE
FN:107,_ZN17DataLoggerService8maxValueERKNS_12VoltageRangeE
FN:125,_ZN17DataLoggerService8toStringERKNS_12CurrentRangeE
FN:146,_ZN17DataLoggerService8minValueERKNS_12CurrentRangeE
FN:162,_ZN17DataLoggerService8maxValueERKNS_12CurrentRangeE
FN:178,_ZN17DataLoggerService8toStringERKNS_5RangeERKNS_4ModeE
FN:217,_ZN17DataLoggerServiceC2EP20QLowEnergyControllerP7QObject
FN:217,_ZN17DataLoggerServiceC1EP20QLowEnergyControllerP7QObject
FN:227,_ZN17DataLoggerServiceC1EP24DataLoggerServicePrivateP7QObject
FN:227,_ZN17DataLoggerServiceC2EP24DataLoggerServicePrivateP7QObject
FN:238,_ZN17DataLoggerServiceD1Ev
FN:238,_ZN17DataLoggerServiceD0Ev
FN:238,_ZN17DataLoggerServiceD2Ev
FN:243,_ZN17DataLoggerService19readCharacteristicsEv
FN:257,_ZN17DataLoggerService26readMetadataCharacteristicEv
FN:270,_ZN17DataLoggerService11setSettingsERKNS_8SettingsE
FN:296,_ZN17DataLoggerService11startLoggerERKNS_8SettingsE
FN:313,_ZN17DataLoggerService10stopLoggerEv
FN:335,_ZN17DataLoggerService12fetchSamplesEv
FN:361,_ZNK17DataLoggerService8metadataEv
FN:380,_ZN17DataLoggerService27enableMetadataNotificationsEv
FN:393,_ZN17DataLoggerService28disableMetadataNotificationsEv
FN:406,_ZN17DataLoggerService26enableReadingNotificationsEv
FN:417,_ZN17DataLoggerService27disableReadingNotificationsEv
FN:460,_ZN24DataLoggerServicePrivateC2EP20QLowEnergyControllerP17DataLoggerService
FN:460,_ZN24DataLoggerServicePrivateC1EP20QLowEnergyControllerP17DataLoggerService
FN:471,_ZN24DataLoggerServicePrivate14encodeSettingsERKN17DataLoggerService8SettingsEb
FN:511,_ZN24DataLoggerServicePrivate13parseMetadataERK10QByteArray
FN:555,_ZN24DataLoggerServicePrivate12parseSamplesERK10QByteArray
FN:575,_ZN24DataLoggerServicePrivate18characteristicReadERK24QLowEnergyCharacteristicRK10QByteArray
FN:606,_ZN24DataLoggerServicePrivate21characteristicWrittenERK24QLowEnergyCharacteristicRK10QByteArray
FN:637,_ZN24DataLoggerServicePrivate21characteristicChangedERK24QLowEnergyCharacteristicRK10QByteArray
FNDA:1,_ZN17DataLoggerService26readMetadataCharacteristicEv
FNDA:8,_ZN17DataLoggerService8minValueERKNS_12VoltageRangeE
FNDA:1,_ZN24DataLoggerServicePrivate21characteristicChangedERK24QLowEnergyCharacteristicRK10QByteArray
FNDA:0,_ZN17DataLoggerServiceC2EP20QLowEnergyControllerP7QObject
FNDA:1,_ZN17DataLoggerService26enableReadingNotificationsEv
FNDA:7,_ZN17DataLoggerService8minValueERKNS_12CurrentRangeE
FNDA:7,_ZN17DataLoggerService8maxValueERKNS_12CurrentRangeE
FNDA:0,_ZN24DataLoggerServicePrivateC2EP20QLowEnergyControllerP17DataLoggerService
FNDA:1,_ZN17DataLoggerService10stopLoggerEv
FNDA:1,_ZN17DataLoggerService27enableMetadataNotificationsEv
FNDA:9,_ZN17DataLoggerService8toStringERKNS_5RangeERKNS_4ModeE
FNDA:15,_ZN17DataLoggerServiceC1EP20QLowEnergyControllerP7QObject
FNDA:4,_ZN17DataLoggerService11setSettingsERKNS_8SettingsE
FNDA:5,_ZN24DataLoggerServicePrivate13parseMetadataERK10QByteArray
FNDA:3,_ZN17DataLoggerService11startLoggerERKNS_8SettingsE
FNDA:11,_ZN17DataLoggerService8toStringERKNS_12CurrentRangeE
FNDA:14,_ZN17DataLoggerServiceD1Ev
FNDA:1,_ZN17DataLoggerService19readCharacteristicsEv
FNDA:0,_ZN17DataLoggerServiceD0Ev
FNDA:12,_ZN17DataLoggerService8toStringERKNS_12VoltageRangeE
FNDA:7,_ZN24DataLoggerServicePrivate14encodeSettingsERKN17DataLoggerService8SettingsEb
FNDA:1,_ZN24DataLoggerServicePrivate21characteristicWrittenERK24QLowEnergyCharacteristicRK10QByteArray
FNDA:4,_ZN24DataLoggerServicePrivate12parseSamplesERK10QByteArray
FNDA:7,_ZN17DataLoggerService8toStringERKNS_4ModeE
FNDA:1,_ZNK17DataLoggerService8metadataEv
FNDA:0,_ZN24DataLoggerServicePrivateC1EP20QLowEnergyControllerP17DataLoggerService
FNDA:0,_ZN17DataLoggerServiceD2Ev
FNDA:1,_ZN24DataLoggerServicePrivate18characteristicReadERK24QLowEnergyCharacteristicRK10QByteArray
FNDA:0,_ZN17DataLoggerServiceC1EP24DataLoggerServicePrivateP7QObject
FNDA:1,_ZN17DataLoggerService28disableMetadataNotificationsEv
FNDA:1,_ZN17DataLoggerService27disableReadingNotificationsEv
FNDA:1,_ZN17DataLoggerService12fetchSamplesEv
FNDA:8,_ZN17DataLoggerService8maxValueERKNS_12VoltageRangeE
FNDA:0,_ZN17DataLoggerServiceC2EP24DataLoggerServicePrivateP7QObject
FNF:34
FNH:27
DA:51,7
DA:53,7
DA:54,1
DA:55,1
DA:56,1
DA:57,1
DA:58,1
DA:68,12
DA:70,12
DA:71,3
DA:72,1
DA:73,1
DA:74,1
DA:75,1
DA:76,3
DA:90,8
DA:92,8
DA:93,1
DA:94,1
DA:95,1
DA:96,1
DA:97,1
DA:98,1
DA:107,8
DA:109,8
DA:110,1
DA:111,1
DA:112,1
DA:113,1
DA:114,1
DA:115,1
DA:125,11
DA:127,11
DA:128,3
DA:129,1
DA:130,1
DA:131,1
DA:132,3
DA:146,7
DA:148,7
DA:149,1
DA:150,1
DA:151,1
DA:152,1
DA:153,1
DA:162,7
DA:164,7
DA:165,1
DA:166,1
DA:167,1
DA:168,1
DA:169,1
DA:178,9
DA:180,9
DA:181,4
DA:183,4
DA:184,4
DA:186,4
DA:217,15
DA:218,15
DA:221,15
DA:227,0
DA:228,0
DA:229,0
DA:232,0
DA:238,14
DA:241,14
DA:243,1
DA:245,1
DA:257,1
DA:260,2
DA:270,4
DA:274,4
DA:275,4
DA:280,0
DA:281,0
DA:282,0
DA:286,0
DA:287,0
DA:288,4
DA:296,3
DA:300,3
DA:301,4
DA:302,2
DA:304,1
DA:313,1
DA:318,1
DA:322,1
DA:335,1
DA:340,1
DA:344,1
DA:361,1
DA:365,1
DA:366,1
DA:368,2
DA:369,1
DA:380,1
DA:383,1
DA:393,1
DA:396,1
DA:406,1
DA:409,1
DA:417,1
DA:420,1
DA:460,0
DA:461,15
DA:462,15
DA:465,0
DA:471,7
DA:482,7
DA:483,7
DA:484,7
DA:485,7
DA:486,7
DA:494,7
DA:495,2
DA:498,5
DA:505,7
DA:506,7
DA:511,5
DA:513,5
DA:520,5
DA:524,3
DA:525,3
DA:526,3
DA:527,3
DA:528,3
DA:537,3
DA:538,1
DA:539,1
DA:540,1
DA:541,2
DA:542,1
DA:543,1
DA:544,1
DA:546,3
DA:547,1
DA:555,4
DA:558,4
DA:559,2
DA:560,1
DA:563,12
DA:564,9
DA:566,3
DA:567,0
DA:569,0
DA:575,1
DA:578,1
DA:580,1
DA:581,0
DA:582,0
DA:583,0
DA:587,1
DA:588,0
DA:589,0
DA:592,1
DA:593,0
DA:594,0
DA:595,0
DA:598,3
DA:599,1
DA:606,1
DA:609,1
DA:612,1
DA:613,0
DA:614,0
DA:617,1
DA:618,0
DA:619,0
DA:620,0
DA:623,1
DA:624,0
DA:625,0
DA:626,0
DA:629,3
DA:630,1
DA:637,1
DA:640,1
DA:643,1
DA:644,0
DA:645,0
DA:646,0
DA:649,1
DA:650,0
DA:651,0
DA:654,1
DA:655,0
DA:656,0
DA:659,3
DA:660,1
LF:190
LH:154
end_of_record
TN:
SF:/Users/runner/work/qtpokit/qtpokit/src/lib/dataloggerservice_p.h
FNF:0
FNH:0
DA:20,5
DA:40,3
LF:2
LH:2
end_of_record
TN:
SF:/Users/runner/work/qtpokit/qtpokit/src/lib/deviceinfoservice.cpp
FN:50,_ZN17DeviceInfoServiceC2EP20QLowEnergyControllerP7QObject
FN:50,_ZN17DeviceInfoServiceC1EP20QLowEnergyControllerP7QObject
FN:60,_ZN17DeviceInfoServiceC1EP24DeviceInfoServicePrivateP7QObject
FN:60,_ZN17DeviceInfoServiceC2EP24DeviceInfoServicePrivateP7QObject
FN:71,_ZN17DeviceInfoServiceD0Ev
FN:71,_ZN17DeviceInfoServiceD1Ev
FN:71,_ZN17DeviceInfoServiceD2Ev
FN:76,_ZN17DeviceInfoService19readCharacteristicsEv
FN:95,_ZN17DeviceInfoService34readFirmwareRevisionCharacteristicEv
FN:110,_ZN17DeviceInfoService34readHardwareRevisionCharacteristicEv
FN:125,_ZN17DeviceInfoService31readManufacturerCharacteristicsEv
FN:140,_ZN17DeviceInfoService29readModelNumberCharacteristicEv
FN:155,_ZN17DeviceInfoService34readSoftwareRevisionCharacteristicEv
FN:168,_ZNK17DeviceInfoService12manufacturerEv
FN:183,_ZNK17DeviceInfoService11modelNumberEv
FN:198,_ZNK17DeviceInfoService16hardwareRevisionEv
FN:213,_ZNK17DeviceInfoService16firmwareRevisionEv
FN:228,_ZNK17DeviceInfoService16softwareRevisionEv
FN:292,_ZN24DeviceInfoServicePrivateC2EP20QLowEnergyControllerP17DeviceInfoService
FN:292,_ZN24DeviceInfoServicePrivateC1EP20QLowEnergyControllerP17DeviceInfoService
FN:303,_ZN24DeviceInfoServicePrivate18characteristicReadERK24QLowEnergyCharacteristicRK10QByteArray
FNDA:1,_ZNK17DeviceInfoService12manufacturerEv
FNDA:0,_ZN24DeviceInfoServicePrivateC2EP20QLowEnergyControllerP17DeviceInfoService
FNDA:0,_ZN17DeviceInfoServiceC2EP20QLowEnergyControllerP7QObject
FNDA:0,_ZN17DeviceInfoServiceD0Ev
FNDA:1,_ZNK17DeviceInfoService16softwareRevisionEv
FNDA:12,_ZN17DeviceInfoServiceD1Ev
FNDA:1,_ZN17DeviceInfoService34readSoftwareRevisionCharacteristicEv
FNDA:0,_ZN24DeviceInfoServicePrivateC1EP20QLowEnergyControllerP17DeviceInfoService
FNDA:13,_ZN17DeviceInfoServiceC1EP20QLowEnergyControllerP7QObject
FNDA:1,_ZN17DeviceInfoService34readHardwareRevisionCharacteristicEv
FNDA:0,_ZN17DeviceInfoServiceD2Ev
FNDA:1,_ZNK17DeviceInfoService11modelNumberEv
FNDA:0,_ZN17DeviceInfoServiceC2EP24DeviceInfoServicePrivateP7QObject
FNDA:1,_ZNK17DeviceInfoService16firmwareRevisionEv
FNDA:1,_ZN17DeviceInfoService29readModelNumberCharacteristicEv
FNDA:1,_ZN17DeviceInfoService19readCharacteristicsEv
FNDA:0,_ZN17DeviceInfoServiceC1EP24DeviceInfoServicePrivateP7QObject
FNDA:1,_ZN17DeviceInfoService34readFirmwareRevisionCharacteristicEv
FNDA:1,_ZN24DeviceInfoServicePrivate18characteristicReadERK24QLowEnergyCharacteristicRK10QByteArray
FNDA:1,_ZN17DeviceInfoService31readManufacturerCharacteristicsEv
FNDA:1,_ZNK17DeviceInfoService16hardwareRevisionEv
FNF:21
FNH:14
DA:50,13
DA:51,13
DA:54,13
DA:60,0
DA:61,0
DA:62,0
DA:65,0
DA:71,12
DA:74,12
DA:76,1
DA:83,1
DA:95,1
DA:98,2
DA:110,1
DA:113,2
DA:125,1
DA:128,2
DA:140,1
DA:143,2
DA:155,1
DA:158,2
DA:168,1
DA:172,1
DA:173,2
DA:174,1
DA:183,1
DA:187,1
DA:188,2
DA:189,1
DA:198,1
DA:202,1
DA:203,2
DA:204,1
DA:213,1
DA:217,1
DA:218,2
DA:219,1
DA:228,1
DA:232,1
DA:233,2
DA:234,1
DA:292,0
DA:293,13
DA:294,13
DA:297,0
DA:303,1
DA:306,1
DA:309,1
DA:310,0
DA:311,0
DA:312,0
DA:314,0
DA:316,1
DA:317,0
DA:318,0
DA:319,0
DA:321,0
DA:323,1
DA:324,0
DA:325,0
DA:326,0
DA:328,0
DA:330,1
DA:331,0
DA:332,0
DA:333,0
DA:335,0
DA:337,1
DA:338,0
DA:339,0
DA:340,0
DA:342,0
DA:344,3
DA:345,1
LF:74
LH:48
end_of_record
TN:
SF:/Users/runner/work/qtpokit/qtpokit/src/lib/deviceinfoservice_p.h
FNF:0
FNH:0
DA:20,1
DA:30,1
LF:2
LH:2
end_of_record
TN:
SF:/Users/runner/work/qtpokit/qtpokit/src/lib/dsoservice.cpp
FN:48,_ZN10DsoService8toStringERKNS_4ModeE
FN:65,_ZN10DsoService8toStringERKNS_12VoltageRangeE
FN:87,_ZN10DsoService8minValueERKNS_12VoltageRangeE
FN:104,_ZN10DsoService8maxValueERKNS_12VoltageRangeE
FN:122,_ZN10DsoService8toStringERKNS_12CurrentRangeE
FN:143,_ZN10DsoService8minValueERKNS_12CurrentRangeE
FN:159,_ZN10DsoService8maxValueERKNS_12CurrentRangeE
FN:175,_ZN10DsoService8toStringERKNS_5RangeERKNS_4ModeE
FN:213,_ZN10DsoServiceC2EP20QLowEnergyControllerP7QObject
FN:213,_ZN10DsoServiceC1EP20QLowEnergyControllerP7QObject
FN:223,_ZN10DsoServiceC2EP17DsoServicePrivateP7QObject
FN:223,_ZN10DsoServiceC1EP17DsoServicePrivateP7QObject
FN:234,_ZN10DsoServiceD2Ev
FN:234,_ZN10DsoServiceD0Ev
FN:234,_ZN10DsoServiceD1Ev
FN:239,_ZN10DsoService19readCharacteristicsEv
FN:253,_ZN10DsoService26readMetadataCharacteristicEv
FN:266,_ZN10DsoService11setSettingsERKNS_8SettingsE
FN:290,_ZN10DsoService8startDsoERKNS_8SettingsE
FN:311,_ZN10DsoService12fetchSamplesEv
FN:337,_ZNK10DsoService8metadataEv
FN:356,_ZN10DsoService27enableMetadataNotificationsEv
FN:369,_ZN10DsoService28disableMetadataNotificationsEv
FN:382,_ZN10DsoService26enableReadingNotificationsEv
FN:393,_ZN10DsoService27disableReadingNotificationsEv
FN:436,_ZN17DsoServicePrivateC2EP20QLowEnergyControllerP10DsoService
FN:436,_ZN17DsoServicePrivateC1EP20QLowEnergyControllerP10DsoService
FN:446,_ZN17DsoServicePrivate14encodeSettingsERKN10DsoService8SettingsE
FN:470,_ZN17DsoServicePrivate13parseMetadataERK10QByteArray
FN:495,_ZN17DsoServicePrivate12parseSamplesERK10QByteArray
FN:515,_ZN17DsoServicePrivate18characteristicReadERK24QLowEnergyCharacteristicRK10QByteArray
FN:546,_ZN17DsoServicePrivate21characteristicWrittenERK24QLowEnergyCharacteristicRK10QByteArray
FN:577,_ZN17DsoServicePrivate21characteristicChangedERK24QLowEnergyCharacteristicRK10QByteArray
FNDA:13,_ZN10DsoServiceD1Ev
FNDA:1,_ZNK10DsoService8metadataEv
FNDA:9,_ZN10DsoService8toStringERKNS_5RangeERKNS_4ModeE
FNDA:1,_ZN10DsoService27disableReadingNotificationsEv
FNDA:7,_ZN10DsoService8maxValueERKNS_12CurrentRangeE
FNDA:0,_ZN10DsoServiceD0Ev
FNDA:0,_ZN10DsoServiceC1EP17DsoServicePrivateP7QObject
FNDA:4,_ZN17DsoServicePrivate12parseSamplesERK10QByteArray
FNDA:7,_ZN10DsoService8minValueERKNS_12CurrentRangeE
FNDA:1,_ZN17DsoServicePrivate21characteristicChangedERK24QLowEnergyCharacteristicRK10QByteArray
FNDA:14,_ZN10DsoServiceC1EP20QLowEnergyControllerP7QObject
FNDA:0,_ZN17DsoServicePrivateC1EP20QLowEnergyControllerP10DsoService
FNDA:1,_ZN10DsoService12fetchSamplesEv
FNDA:0,_ZN10DsoServiceD2Ev
FNDA:1,_ZN17DsoServicePrivate18characteristicReadERK24QLowEnergyCharacteristicRK10QByteArray
FNDA:1,_ZN10DsoService28disableMetadataNotificationsEv
FNDA:8,_ZN10DsoService8minValueERKNS_12VoltageRangeE
FNDA:0,_ZN10DsoServiceC2EP20QLowEnergyControllerP7QObject
FNDA:0,_ZN10DsoServiceC2EP17DsoServicePrivateP7QObject
FNDA:1,_ZN10DsoService26readMetadataCharacteristicEv
FNDA:11,_ZN10DsoService8toStringERKNS_12CurrentRangeE
FNDA:5,_ZN10DsoService11setSettingsERKNS_8SettingsE
FNDA:1,_ZN10DsoService27enableMetadataNotificationsEv
FNDA:4,_ZN10DsoService8startDsoERKNS_8SettingsE
FNDA:7,_ZN10DsoService8toStringERKNS_4ModeE
FNDA:3,_ZN17DsoServicePrivate14encodeSettingsERKN10DsoService8SettingsE
FNDA:12,_ZN10DsoService8toStringERKNS_12VoltageRangeE
FNDA:0,_ZN17DsoServicePrivateC2EP20QLowEnergyControllerP10DsoService
FNDA:1,_ZN10DsoService26enableReadingNotificationsEv
FNDA:8,_ZN10DsoService8maxValueERKNS_12VoltageRangeE
FNDA:1,_ZN10DsoService19readCharacteristicsEv
FNDA:4,_ZN17DsoServicePrivate13parseMetadataERK10QByteArray
FNDA:1,_ZN17DsoServicePrivate21characteristicWrittenERK24QLowEnergyCharacteristicRK10QByteArray
FNF:33
FNH:26
DA:48,7
DA:50,7
DA:51,1
DA:52,1
DA:53,1
DA:54,1
DA:55,1
DA:65,12
DA:67,12
DA:68,3
DA:69,1
DA:70,1
DA:71,1
DA:72,1
DA:73,3
DA:87,8
DA:89,8
DA:90,1
DA:91,1
DA:92,1
DA:93,1
DA:94,1
DA:95,1
DA:104,8
DA:106,8
DA:107,1
DA:108,1
DA:109,1
DA:110,1
DA:111,1
DA:112,1
DA:122,11
DA:124,11
DA:125,3
DA:126,1
DA:127,1
DA:128,1
DA:129,3
DA:143,7
DA:145,7
DA:146,1
DA:147,1
DA:148,1
DA:149,1
DA:150,1
DA:159,7
DA:161,7
DA:162,1
DA:163,1
DA:164,1
DA:165,1
DA:166,1
DA:175,9
DA:177,9
DA:178,4
DA:180,4
DA:181,4
DA:183,4
DA:213,14
DA:214,14
DA:217,14
DA:223,0
DA:224,0
DA:225,0
DA:228,0
DA:234,13
DA:237,13
DA:239,1
DA:241,1
DA:253,1
DA:256,2
DA:266,5
DA:270,5
DA:271,5
DA:275,0
DA:276,0
DA:280,0
DA:281,0
DA:282,5
DA:290,4
DA:294,4
DA:295,2
DA:296,1
DA:298,3
DA:311,1
DA:316,1
DA:320,1
DA:337,1
DA:341,1
DA:342,1
DA:344,2
DA:345,1
DA:356,1
DA:359,1
DA:369,1
DA:372,1
DA:382,1
DA:385,1
DA:393,1
DA:396,1
DA:436,0
DA:437,14
DA:438,14
DA:441,0
DA:446,3
DA:456,3
DA:457,3
DA:458,3
DA:459,3
DA:460,3
DA:461,3
DA:464,3
DA:465,3
DA:470,4
DA:472,4
DA:478,4
DA:482,2
DA:483,2
DA:484,2
DA:485,2
DA:486,2
DA:487,2
DA:488,2
DA:489,2
DA:495,4
DA:498,4
DA:499,2
DA:500,1
DA:503,17
DA:504,14
DA:506,3
DA:507,0
DA:509,0
DA:515,1
DA:518,1
DA:520,1
DA:521,0
DA:522,0
DA:523,0
DA:527,1
DA:528,0
DA:529,0
DA:532,1
DA:533,0
DA:534,0
DA:535,0
DA:538,3
DA:539,1
DA:546,1
DA:549,1
DA:552,1
DA:553,0
DA:554,0
DA:557,1
DA:558,0
DA:559,0
DA:560,0
DA:563,1
DA:564,0
DA:565,0
DA:566,0
DA:569,3
DA:570,1
DA:577,1
DA:580,1
DA:583,1
DA:584,0
DA:585,0
DA:586,0
DA:589,1
DA:590,0
DA:591,0
DA:594,1
DA:595,0
DA:596,0
DA:599,3
DA:600,1
LF:177
LH:142
end_of_record
TN:
SF:/Users/runner/work/qtpokit/qtpokit/src/lib/dsoservice_p.h
FNF:0
FNH:0
DA:20,4
DA:39,3
LF:2
LH:2
end_of_record
TN:
SF:/Users/runner/work/qtpokit/qtpokit/src/lib/genericaccessservice.cpp
FN:44,_ZN20GenericAccessServiceC2EP20QLowEnergyControllerP7QObject
FN:44,_ZN20GenericAccessServiceC1EP20QLowEnergyControllerP7QObject
FN:54,_ZN20GenericAccessServiceC1EP27GenericAccessServicePrivateP7QObject
FN:54,_ZN20GenericAccessServiceC2EP27GenericAccessServicePrivateP7QObject
FN:65,_ZN20GenericAccessServiceD0Ev
FN:65,_ZN20GenericAccessServiceD1Ev
FN:65,_ZN20GenericAccessServiceD2Ev
FN:70,_ZN20GenericAccessService19readCharacteristicsEv
FN:86,_ZN20GenericAccessService28readAppearanceCharacteristicEv
FN:101,_ZN20GenericAccessService28readDeviceNameCharacteristicEv
FN:118,_ZNK20GenericAccessService10appearanceEv
FN:134,_ZNK20GenericAccessService10deviceNameEv
FN:149,_ZN20GenericAccessService13setDeviceNameERK7QString
FN:206,_ZN27GenericAccessServicePrivateC1EP20QLowEnergyControllerP20GenericAccessService
FN:206,_ZN27GenericAccessServicePrivateC2EP20QLowEnergyControllerP20GenericAccessService
FN:216,_ZN27GenericAccessServicePrivate15parseAppearanceERK10QByteArray
FN:230,_ZN27GenericAccessServicePrivate18characteristicReadERK24QLowEnergyCharacteristicRK10QByteArray
FN:256,_ZN27GenericAccessServicePrivate21characteristicWrittenERK24QLowEnergyCharacteristicRK10QByteArray
FNDA:0,_ZN20GenericAccessServiceC2EP20QLowEnergyControllerP7QObject
FNDA:0,_ZN20GenericAccessServiceD0Ev
FNDA:1,_ZN20GenericAccessService13setDeviceNameERK7QString
FNDA:9,_ZN20GenericAccessServiceC1EP20QLowEnergyControllerP7QObject
FNDA:0,_ZN27GenericAccessServicePrivateC1EP20QLowEnergyControllerP20GenericAccessService
FNDA:0,_ZN27GenericAccessServicePrivateC2EP20QLowEnergyControllerP20GenericAccessService
FNDA:0,_ZN20GenericAccessServiceC1EP27GenericAccessServicePrivateP7QObject
FNDA:0,_ZN20GenericAccessServiceC2EP27GenericAccessServicePrivateP7QObject
FNDA:1,_ZNK20GenericAccessService10deviceNameEv
FNDA:1,_ZNK20GenericAccessService10appearanceEv
FNDA:1,_ZN20GenericAccessService28readAppearanceCharacteristicEv
FNDA:8,_ZN27GenericAccessServicePrivate15parseAppearanceERK10QByteArray
FNDA:1,_ZN27GenericAccessServicePrivate18characteristicReadERK24QLowEnergyCharacteristicRK10QByteArray
FNDA:1,_ZN27GenericAccessServicePrivate21characteristicWrittenERK24QLowEnergyCharacteristicRK10QByteArray
FNDA:0,_ZN20GenericAccessServiceD2Ev
FNDA:1,_ZN20GenericAccessService19readCharacteristicsEv
FNDA:8,_ZN20GenericAccessServiceD1Ev
FNDA:1,_ZN20GenericAccessService28readDeviceNameCharacteristicEv
FNF:18
FNH:11
DA:44,9
DA:45,9
DA:48,9
DA:54,0
DA:55,0
DA:56,0
DA:59,0
DA:65,8
DA:68,8
DA:70,1
DA:74,1
DA:86,1
DA:89,2
DA:101,1
DA:104,2
DA:118,1
DA:122,1
DA:123,1
DA:124,1
DA:125,1
DA:134,1
DA:138,1
DA:139,2
DA:140,1
DA:149,1
DA:153,1
DA:154,1
DA:159,0
DA:160,0
DA:161,0
DA:162,0
DA:165,0
DA:166,0
DA:167,1
DA:206,0
DA:207,9
DA:208,9
DA:211,0
DA:216,8
DA:218,8
DA:222,6
DA:230,1
DA:233,1
DA:236,1
DA:237,0
DA:238,0
DA:241,1
DA:242,0
DA:243,0
DA:244,0
DA:246,0
DA:248,3
DA:249,1
DA:256,1
DA:259,1
DA:262,1
DA:263,0
DA:264,0
DA:265,0
DA:268,1
DA:269,0
DA:270,0
DA:273,3
DA:274,1
LF:64
LH:41
end_of_record
TN:
SF:/Users/runner/work/qtpokit/qtpokit/src/lib/genericaccessservice_p.h
FNF:0
FNH:0
DA:20,2
DA:35,2
LF:2
LH:2
end_of_record
TN:
SF:/Users/runner/work/qtpokit/qtpokit/src/lib/multimeterservice.cpp
FN:41,_ZN17MultimeterService8toStringERKNS_4ModeE
FN:62,_ZN17MultimeterService8toStringERKNS_12VoltageRangeE
FN:85,_ZN17MultimeterService8minValueERKNS_12VoltageRangeE
FN:103,_ZN17MultimeterService8maxValueERKNS_12VoltageRangeE
FN:122,_ZN17MultimeterService8toStringERKNS_12CurrentRangeE
FN:144,_ZN17MultimeterService8minValueERKNS_12CurrentRangeE
FN:161,_ZN17MultimeterService8maxValueERKNS_12CurrentRangeE
FN:179,_ZN17MultimeterService8toStringERKNS_15ResistanceRangeE
FN:199,_ZN17MultimeterService8minValueERKNS_15ResistanceRangeE
FN:219,_ZN17MultimeterService8maxValueERKNS_15ResistanceRangeE
FN:239,_ZN17MultimeterService8toStringERKNS_5RangeERKNS_4ModeE
FN:265,_ZN17MultimeterServiceC2EP20QLowEnergyControllerP7QObject
FN:265,_ZN17MultimeterServiceC1EP20QLowEnergyControllerP7QObject
FN:275,_ZN17MultimeterServiceC1EP24MultimeterServicePrivateP7QObject
FN:275,_ZN17MultimeterServiceC2EP24MultimeterServicePrivateP7QObject
FN:286,_ZN17MultimeterServiceD1Ev
FN:286,_ZN17MultimeterServiceD2Ev
FN:286,_ZN17MultimeterServiceD0Ev
FN:291,_ZN17MultimeterService19readCharacteristicsEv
FN:305,_ZN17MultimeterService25readReadingCharacteristicEv
FN:318,_ZN17MultimeterService11setSettingsERKNS_8SettingsE
FN:350,_ZNK17MultimeterService7readingEv
FN:369,_ZN17MultimeterService26enableReadingNotificationsEv
FN:382,_ZN17MultimeterService27disableReadingNotificationsEv
FN:415,_ZN24MultimeterServicePrivateC2EP20QLowEnergyControllerP17MultimeterService
FN:415,_ZN24MultimeterServicePrivateC1EP20QLowEnergyControllerP17MultimeterService
FN:425,_ZN24MultimeterServicePrivate14encodeSettingsERKN17MultimeterService8SettingsE
FN:444,_ZN24MultimeterServicePrivate12parseReadingERK10QByteArray
FN:468,_ZN24MultimeterServicePrivate18characteristicReadERK24QLowEnergyCharacteristicRK10QByteArray
FN:493,_ZN24MultimeterServicePrivate21characteristicWrittenERK24QLowEnergyCharacteristicRK10QByteArray
FN:518,_ZN24MultimeterServicePrivate21characteristicChangedERK24QLowEnergyCharacteristicRK10QByteArray
FNDA:12,_ZN17MultimeterService8toStringERKNS_12CurrentRangeE
FNDA:4,_ZN24MultimeterServicePrivate14encodeSettingsERKN17MultimeterService8SettingsE
FNDA:0,_ZN24MultimeterServicePrivateC1EP20QLowEnergyControllerP17MultimeterService
FNDA:1,_ZN17MultimeterService27disableReadingNotificationsEv
FNDA:1,_ZNK17MultimeterService7readingEv
FNDA:0,_ZN17MultimeterServiceD0Ev
FNDA:9,_ZN17MultimeterService8toStringERKNS_5RangeERKNS_4ModeE
FNDA:1,_ZN24MultimeterServicePrivate18characteristicReadERK24QLowEnergyCharacteristicRK10QByteArray
FNDA:9,_ZN17MultimeterService8minValueERKNS_12VoltageRangeE
FNDA:0,_ZN24MultimeterServicePrivateC2EP20QLowEnergyControllerP17MultimeterService
FNDA:0,_ZN17MultimeterServiceC2EP20QLowEnergyControllerP7QObject
FNDA:1,_ZN24MultimeterServicePrivate21characteristicChangedERK24QLowEnergyCharacteristicRK10QByteArray
FNDA:8,_ZN17MultimeterService8minValueERKNS_12CurrentRangeE
FNDA:9,_ZN17MultimeterService8maxValueERKNS_12VoltageRangeE
FNDA:0,_ZN17MultimeterServiceC1EP24MultimeterServicePrivateP7QObject
FNDA:1,_ZN24MultimeterServicePrivate21characteristicWrittenERK24QLowEnergyCharacteristicRK10QByteArray
FNDA:5,_ZN24MultimeterServicePrivate12parseReadingERK10QByteArray
FNDA:1,_ZN17MultimeterService19readCharacteristicsEv
FNDA:1,_ZN17MultimeterService11setSettingsERKNS_8SettingsE
FNDA:9,_ZN17MultimeterServiceD1Ev
FNDA:13,_ZN17MultimeterService8toStringERKNS_12VoltageRangeE
FNDA:0,_ZN17MultimeterServiceC2EP24MultimeterServicePrivateP7QObject
FNDA:11,_ZN17MultimeterService8toStringERKNS_15ResistanceRangeE
FNDA:1,_ZN17MultimeterService25readReadingCharacteristicEv
FNDA:0,_ZN17MultimeterServiceD2Ev
FNDA:11,_ZN17MultimeterService8maxValueERKNS_15ResistanceRangeE
FNDA:1,_ZN17MultimeterService26enableReadingNotificationsEv
FNDA:8,_ZN17MultimeterService8maxValueERKNS_12CurrentRangeE
FNDA:10,_ZN17MultimeterServiceC1EP20QLowEnergyControllerP7QObject
FNDA:11,_ZN17MultimeterService8minValueERKNS_15ResistanceRangeE
FNDA:11,_ZN17MultimeterService8toStringERKNS_4ModeE
FNF:31
FNH:24
DA:41,11
DA:43,11
DA:44,1
DA:45,1
DA:46,1
DA:47,1
DA:48,1
DA:49,1
DA:50,1
DA:51,1
DA:52,1
DA:62,13
DA:64,13
DA:65,3
DA:66,1
DA:67,1
DA:68,1
DA:69,1
DA:70,3
DA:71,1
DA:85,9
DA:87,9
DA:88,1
DA:89,1
DA:90,1
DA:91,1
DA:92,1
DA:93,1
DA:94,1
DA:103,9
DA:105,9
DA:106,1
DA:107,1
DA:108,1
DA:109,1
DA:110,1
DA:111,1
DA:112,1
DA:122,12
DA:124,12
DA:125,3
DA:126,1
DA:127,1
DA:128,1
DA:129,3
DA:130,1
DA:144,8
DA:146,8
DA:147,1
DA:148,1
DA:149,1
DA:150,1
DA:151,1
DA:152,1
DA:161,8
DA:163,8
DA:164,1
DA:165,1
DA:166,1
DA:167,1
DA:168,1
DA:169,1
DA:179,11
DA:181,11
DA:182,1
DA:183,1
DA:184,1
DA:185,1
DA:186,1
DA:187,1
DA:188,1
DA:189,1
DA:190,1
DA:199,11
DA:201,11
DA:202,1
DA:203,1
DA:204,1
DA:205,1
DA:206,1
DA:207,1
DA:208,1
DA:209,1
DA:210,1
DA:219,11
DA:221,11
DA:222,1
DA:223,1
DA:224,1
DA:225,1
DA:226,1
DA:227,1
DA:228,1
DA:229,1
DA:230,1
DA:239,9
DA:241,9
DA:242,4
DA:244,4
DA:245,4
DA:247,4
DA:265,10
DA:266,10
DA:269,10
DA:275,0
DA:276,0
DA:277,0
DA:280,0
DA:286,9
DA:289,9
DA:291,1
DA:293,1
DA:305,1
DA:308,2
DA:318,1
DA:322,1
DA:323,1
DA:327,0
DA:328,0
DA:332,0
DA:333,0
DA:334,1
DA:350,1
DA:354,1
DA:355,1
DA:357,2
DA:358,1
DA:369,1
DA:372,1
DA:382,1
DA:385,1
DA:415,0
DA:416,10
DA:417,10
DA:420,0
DA:425,4
DA:432,4
DA:433,4
DA:434,4
DA:435,4
DA:438,4
DA:439,4
DA:444,5
DA:453,5
DA:454,2
DA:457,3
DA:458,3
DA:459,3
DA:460,3
DA:461,3
DA:468,1
DA:471,1
DA:474,1
DA:475,0
DA:476,0
DA:479,1
DA:480,0
DA:481,0
DA:482,0
DA:485,3
DA:486,1
DA:493,1
DA:496,1
DA:499,1
DA:500,0
DA:501,0
DA:504,1
DA:505,0
DA:506,0
DA:507,0
DA:510,3
DA:511,1
DA:518,1
DA:521,1
DA:524,1
DA:525,0
DA:526,0
DA:527,0
DA:530,1
DA:531,0
DA:532,0
DA:535,3
DA:536,1
LF:183
LH:158
end_of_record
TN:
SF:/Users/runner/work/qtpokit/qtpokit/src/lib/multimeterservice_p.h
FNF:0
FNH:0
DA:20,3
DA:38,3
LF:2
LH:2
end_of_record
TN:
SF:/Users/runner/work/qtpokit/qtpokit/src/lib/pokitdevice.cpp
FN:44,_ZN11PokitDeviceC1ERK20QBluetoothDeviceInfoP7QObject
FN:44,_ZN11PokitDeviceC2ERK20QBluetoothDeviceInfoP7QObject
FN:54,_ZN11PokitDeviceC2EP20QLowEnergyControllerP7QObject
FN:54,_ZN11PokitDeviceC1EP20QLowEnergyControllerP7QObject
FN:68,_ZN11PokitDeviceC1EP18PokitDevicePrivateP7QObject
FN:68,_ZN11PokitDeviceC2EP18PokitDevicePrivateP7QObject
FN:78,_ZN11PokitDeviceD0Ev
FN:78,_ZN11PokitDeviceD2Ev
FN:78,_ZN11PokitDeviceD1Ev
FN:86,_ZN11PokitDevice10controllerEv
FN:95,_ZNK11PokitDevice10controllerEv
FN:118,_ZN11PokitDevice11calibrationEv
FN:130,_ZN11PokitDevice10dataLoggerEv
FN:143,_ZN11PokitDevice17deviceInformationEv
FN:155,_ZN11PokitDevice3dsoEv
FN:167,_ZN11PokitDevice13genericAccessEv
FN:179,_ZN11PokitDevice10multimeterEv
FN:191,_ZN11PokitDevice6statusEv
FN:203,_ZN11PokitDevice15serviceToStringERK14QBluetoothUuid
FN:226,_ZN11PokitDevice21charcteristicToStringERK14QBluetoothUuid
FN:276,_ZN18PokitDevicePrivateC1EP11PokitDevice
FN:276,_ZN18PokitDevicePrivateC2EP11PokitDevice
FN:296,_ZN18PokitDevicePrivate13setControllerEP20QLowEnergyController
FN:351,_ZN18PokitDevicePrivate9connectedEv
FN:365,_ZN18PokitDevicePrivate17connectionUpdatedERK30QLowEnergyConnectionParameters
FN:375,_ZN18PokitDevicePrivate12disconnectedEv
FN:383,_ZN18PokitDevicePrivate17discoveryFinishedEv
FN:391,_ZN18PokitDevicePrivate13errorOccurredEN20QLowEnergyController5ErrorE
FN:399,_ZN18PokitDevicePrivate17serviceDiscoveredERK14QBluetoothUuid
FN:408,_ZN18PokitDevicePrivate12stateChangedEN20QLowEnergyController15ControllerStateE
FNDA:0,_ZN11PokitDeviceC2ERK20QBluetoothDeviceInfoP7QObject
FNDA:17,_ZN18PokitDevicePrivateC1EP11PokitDevice
FNDA:24,_ZN18PokitDevicePrivate13setControllerEP20QLowEnergyController
FNDA:0,_ZN18PokitDevicePrivateC2EP11PokitDevice
FNDA:4,_ZN11PokitDevice11calibrationEv
FNDA:1,_ZN18PokitDevicePrivate17discoveryFinishedEv
FNDA:4,_ZN11PokitDevice6statusEv
FNDA:4,_ZN11PokitDevice3dsoEv
FNDA:1,_ZN18PokitDevicePrivate17serviceDiscoveredERK14QBluetoothUuid
FNDA:4,_ZN11PokitDevice10dataLoggerEv
FNDA:1,_ZN18PokitDevicePrivate17connectionUpdatedERK30QLowEnergyConnectionParameters
FNDA:4,_ZN11PokitDevice17deviceInformationEv
FNDA:4,_ZN11PokitDevice13genericAccessEv
FNDA:3,_ZN18PokitDevicePrivate9connectedEv
FNDA:17,_ZN11PokitDeviceD1Ev
FNDA:1,_ZN18PokitDevicePrivate12disconnectedEv
FNDA:17,_ZN11PokitDeviceC1EP20QLowEnergyControllerP7QObject
FNDA:1,_ZN18PokitDevicePrivate12stateChangedEN20QLowEnergyController15ControllerStateE
FNDA:0,_ZN11PokitDeviceC1ERK20QBluetoothDeviceInfoP7QObject
FNDA:0,_ZN11PokitDeviceC1EP18PokitDevicePrivateP7QObject
FNDA:20,_ZN11PokitDevice21charcteristicToStringERK14QBluetoothUuid
FNDA:0,_ZN11PokitDeviceC2EP20QLowEnergyControllerP7QObject
FNDA:7,_ZN11PokitDevice10controllerEv
FNDA:4,_ZN11PokitDevice10multimeterEv
FNDA:0,_ZN11PokitDeviceC2EP18PokitDevicePrivateP7QObject
FNDA:0,_ZN11PokitDeviceD0Ev
FNDA:0,_ZN11PokitDeviceD2Ev
FNDA:1,_ZN18PokitDevicePrivate13errorOccurredEN20QLowEnergyController5ErrorE
FNDA:1,_ZNK11PokitDevice10controllerEv
FNDA:8,_ZN11PokitDevice15serviceToStringERK14QBluetoothUuid
FNF:30
FNH:22
DA:44,0
DA:45,0
DA:48,0
DA:49,0
DA:54,17
DA:55,17
DA:58,17
DA:59,17
DA:68,0
DA:69,0
DA:72,0
DA:78,17
DA:80,17
DA:81,17
DA:86,7
DA:89,7
DA:95,1
DA:98,1
DA:118,4
DA:120,8
DA:130,4
DA:132,8
DA:143,4
DA:145,8
DA:155,4
DA:157,8
DA:167,4
DA:169,8
DA:179,4
DA:181,8
DA:191,4
DA:193,8
DA:203,8
DA:206,1
DA:207,1
DA:208,1
DA:209,1
DA:210,1
DA:211,1
DA:213,2
DA:215,2
DA:216,17
DA:217,8
DA:226,20
DA:229,1
DA:231,1
DA:232,1
DA:233,1
DA:235,1
DA:236,1
DA:237,1
DA:239,1
DA:240,1
DA:242,1
DA:243,1
DA:244,1
DA:245,1
DA:248,2
DA:250,2
DA:252,2
DA:254,2
DA:256,2
DA:259,2
DA:261,2
DA:262,41
DA:263,20
DA:276,17
DA:277,17
DA:278,17
DA:281,17
DA:296,24
DA:298,24
DA:299,19
DA:300,19
DA:303,5
DA:304,3
DA:305,0
DA:306,3
DA:309,5
DA:310,5
DA:311,5
DA:315,3
DA:316,0
DA:317,0
DA:319,3
DA:322,3
DA:325,3
DA:328,3
DA:332,3
DA:341,3
DA:344,3
DA:351,3
DA:353,3
DA:354,4
DA:355,2
DA:357,1
DA:358,0
DA:359,0
DA:365,1
DA:367,1
DA:368,0
DA:369,0
DA:370,1
DA:375,1
DA:377,1
DA:378,1
DA:383,1
DA:385,1
DA:386,1
DA:391,1
DA:393,1
DA:394,1
DA:399,1
DA:401,1
DA:402,0
DA:403,1
DA:408,1
DA:410,1
DA:411,1
LF:119
LH:104
end_of_record
TN:
SF:/Users/runner/work/qtpokit/qtpokit/src/lib/pokitdevice_p.h
FN:37,_ZN18PokitDevicePrivate2lcEv
FNDA:39,_ZN18PokitDevicePrivate2lcEv
FNF:1
FNH:1
DA:34,0
DA:37,39
LF:2
LH:1
end_of_record
TN:
SF:/Users/runner/work/qtpokit/qtpokit/src/lib/pokitdiscoveryagent.cpp
FN:29,_ZN19PokitDiscoveryAgentC1ERK17QBluetoothAddressP7QObject
FN:29,_ZN19PokitDiscoveryAgentC2ERK17QBluetoothAddressP7QObject
FN:40,_ZN19PokitDiscoveryAgentC2EP7QObject
FN:40,_ZN19PokitDiscoveryAgentC1EP7QObject
FN:52,_ZN19PokitDiscoveryAgentC1EP26PokitDiscoveryAgentPrivateRK17QBluetoothAddressP7QObject
FN:52,_ZN19PokitDiscoveryAgentC2EP26PokitDiscoveryAgentPrivateRK17QBluetoothAddressP7QObject
FN:63,_ZN19PokitDiscoveryAgentC1EP26PokitDiscoveryAgentPrivateP7QObject
FN:63,_ZN19PokitDiscoveryAgentC2EP26PokitDiscoveryAgentPrivateP7QObject
FN:74,_ZN19PokitDiscoveryAgentD0Ev
FN:74,_ZN19PokitDiscoveryAgentD1Ev
FN:74,_ZN19PokitDiscoveryAgentD2Ev
FN:85,_ZN19PokitDiscoveryAgent13isPokitDeviceERK20QBluetoothDeviceInfo
FN:96,_ZN19PokitDiscoveryAgent12isPokitMeterERK20QBluetoothDeviceInfo
FN:107,_ZN19PokitDiscoveryAgent10isPokitProERK20QBluetoothDeviceInfo
FN:118,_ZN19PokitDiscoveryAgent5startE6QFlagsIN30QBluetoothDeviceDiscoveryAgent15DiscoveryMethodEE
FN:129,_ZN19PokitDiscoveryAgent5startEv
FN:161,_ZN26PokitDiscoveryAgentPrivateC2EP19PokitDiscoveryAgent
FN:161,_ZN26PokitDiscoveryAgentPrivateC1EP19PokitDiscoveryAgent
FN:176,_ZN26PokitDiscoveryAgentPrivate8canceledEv
FN:186,_ZN26PokitDiscoveryAgentPrivate16deviceDiscoveredERK20QBluetoothDeviceInfo
FN:217,_ZN26PokitDiscoveryAgentPrivate5errorEN30QBluetoothDeviceDiscoveryAgent5ErrorE
FN:225,_ZN26PokitDiscoveryAgentPrivate8finishedEv
FNDA:0,_ZN19PokitDiscoveryAgentC2EP26PokitDiscoveryAgentPrivateRK17QBluetoothAddressP7QObject
FNDA:1,_ZN26PokitDiscoveryAgentPrivate5errorEN30QBluetoothDeviceDiscoveryAgent5ErrorE
FNDA:0,_ZN19PokitDiscoveryAgent5startEv
FNDA:8,_ZN26PokitDiscoveryAgentPrivate16deviceDiscoveredERK20QBluetoothDeviceInfo
FNDA:1,_ZN26PokitDiscoveryAgentPrivate8finishedEv
FNDA:0,_ZN19PokitDiscoveryAgentD2Ev
FNDA:42,_ZN19PokitDiscoveryAgentC1EP7QObject
FNDA:42,_ZN26PokitDiscoveryAgentPrivateC1EP19PokitDiscoveryAgent
FNDA:0,_ZN19PokitDiscoveryAgentC2EP26PokitDiscoveryAgentPrivateP7QObject
FNDA:0,_ZN19PokitDiscoveryAgentC2ERK17QBluetoothAddressP7QObject
FNDA:0,_ZN19PokitDiscoveryAgent5startE6QFlagsIN30QBluetoothDeviceDiscoveryAgent15DiscoveryMethodEE
FNDA:0,_ZN26PokitDiscoveryAgentPrivateC2EP19PokitDiscoveryAgent
FNDA:16,_ZN19PokitDiscoveryAgent13isPokitDeviceERK20QBluetoothDeviceInfo
FNDA:20,_ZN19PokitDiscoveryAgent10isPokitProERK20QBluetoothDeviceInfo
FNDA:0,_ZN19PokitDiscoveryAgentC2EP7QObject
FNDA:31,_ZN19PokitDiscoveryAgentD0Ev
FNDA:42,_ZN19PokitDiscoveryAgentD1Ev
FNDA:0,_ZN19PokitDiscoveryAgentC1EP26PokitDiscoveryAgentPrivateP7QObject
FNDA:24,_ZN19PokitDiscoveryAgent12isPokitMeterERK20QBluetoothDeviceInfo
FNDA:0,_ZN19PokitDiscoveryAgentC1ERK17QBluetoothAddressP7QObject
FNDA:1,_ZN26PokitDiscoveryAgentPrivate8canceledEv
FNDA:0,_ZN19PokitDiscoveryAgentC1EP26PokitDiscoveryAgentPrivateRK17QBluetoothAddressP7QObject
FNF:22
FNH:11
DA:29,0
DA:30,0
DA:32,0
DA:35,0
DA:40,42
DA:42,42
DA:45,42
DA:52,0
DA:54,0
DA:55,0
DA:58,0
DA:63,0
DA:64,0
DA:65,0
DA:68,0
DA:74,73
DA:76,42
DA:77,73
DA:85,16
DA:87,16
DA:96,24
DA:98,48
DA:107,20
DA:109,40
DA:118,0
DA:122,0
DA:123,0
DA:124,0
DA:129,0
DA:132,0
DA:133,0
DA:134,0
DA:161,42
DA:162,42
DA:164,42
DA:171,42
DA:176,1
DA:178,1
DA:179,1
DA:186,8
DA:189,8
DA:190,3
DA:191,0
DA:192,3
DA:217,1
DA:219,3
DA:220,1
DA:225,1
DA:227,1
DA:228,1
LF:50
LH:29
end_of_record
TN:
SF:/Users/runner/work/qtpokit/qtpokit/src/lib/pokitdiscoveryagent_p.h
FN:27,_ZN26PokitDiscoveryAgentPrivate2lcEv
FNDA:7,_ZN26PokitDiscoveryAgentPrivate2lcEv
FNF:1
FNH:1
DA:24,1
DA:27,7
DA:44,8
LF:3
LH:3
end_of_record
TN:
SF:/Users/runner/work/qtpokit/qtpokit/src/lib/statusservice.cpp
FN:68,_ZN13StatusService8toStringERKNS_12DeviceStatusE
FN:92,_ZN13StatusService8toStringERKNS_13BatteryStatusE
FN:113,_ZN13StatusServiceC2EP20QLowEnergyControllerP7QObject
FN:113,_ZN13StatusServiceC1EP20QLowEnergyControllerP7QObject
FN:123,_ZN13StatusServiceC2EP20StatusServicePrivateP7QObject
FN:123,_ZN13StatusServiceC1EP20StatusServicePrivateP7QObject
FN:134,_ZN13StatusServiceD1Ev
FN:134,_ZN13StatusServiceD0Ev
FN:134,_ZN13StatusServiceD2Ev
FN:139,_ZN13StatusService19readCharacteristicsEv
FN:156,_ZN13StatusService25readDeviceCharacteristicsEv
FN:171,_ZN13StatusService24readStatusCharacteristicEv
FN:186,_ZN13StatusService22readNameCharacteristicEv
FN:207,_ZNK13StatusService21deviceCharacteristicsEv
FN:232,_ZNK13StatusService6statusEv
FN:249,_ZNK13StatusService10deviceNameEv
FN:264,_ZN13StatusService13setDeviceNameERK7QString
FN:299,_ZN13StatusService8flashLedEv
FN:368,_ZN20StatusServicePrivateC2EP20QLowEnergyControllerP13StatusService
FN:368,_ZN20StatusServicePrivateC1EP20QLowEnergyControllerP13StatusService
FN:378,_ZN20StatusServicePrivate26parseDeviceCharacteristicsERK10QByteArray
FN:420,_ZN20StatusServicePrivate11parseStatusERK10QByteArray
FN:460,_ZN20StatusServicePrivate17serviceDiscoveredERK14QBluetoothUuid
FN:476,_ZN20StatusServicePrivate18characteristicReadERK24QLowEnergyCharacteristicRK10QByteArray
FN:513,_ZN20StatusServicePrivate21characteristicWrittenERK24QLowEnergyCharacteristicRK10QByteArray
FNDA:1,_ZN13StatusService8flashLedEv
FNDA:1,_ZN13StatusService24readStatusCharacteristicEv
FNDA:0,_ZN13StatusServiceC2EP20QLowEnergyControllerP7QObject
FNDA:4,_ZN13StatusService8toStringERKNS_13BatteryStatusE
FNDA:12,_ZN13StatusServiceD1Ev
FNDA:1,_ZN13StatusService13setDeviceNameERK7QString
FNDA:1,_ZN20StatusServicePrivate18characteristicReadERK24QLowEnergyCharacteristicRK10QByteArray
FNDA:4,_ZN20StatusServicePrivate11parseStatusERK10QByteArray
FNDA:0,_ZN13StatusServiceD2Ev
FNDA:1,_ZN13StatusService22readNameCharacteristicEv
FNDA:1,_ZNK13StatusService21deviceCharacteristicsEv
FNDA:0,_ZN20StatusServicePrivateC2EP20QLowEnergyControllerP13StatusService
FNDA:0,_ZN13StatusServiceC2EP20StatusServicePrivateP7QObject
FNDA:1,_ZN13StatusService25readDeviceCharacteristicsEv
FNDA:0,_ZN13StatusServiceD0Ev
FNDA:13,_ZN13StatusService8toStringERKNS_12DeviceStatusE
FNDA:1,_ZNK13StatusService10deviceNameEv
FNDA:13,_ZN13StatusServiceC1EP20QLowEnergyControllerP7QObject
FNDA:0,_ZN13StatusServiceC1EP20StatusServicePrivateP7QObject
FNDA:1,_ZN20StatusServicePrivate21characteristicWrittenERK24QLowEnergyCharacteristicRK10QByteArray
FNDA:4,_ZN20StatusServicePrivate17serviceDiscoveredERK14QBluetoothUuid
FNDA:4,_ZN20StatusServicePrivate26parseDeviceCharacteristicsERK10QByteArray
FNDA:1,_ZN13StatusService19readCharacteristicsEv
FNDA:1,_ZNK13StatusService6statusEv
FNDA:13,_ZN20StatusServicePrivateC1EP20QLowEnergyControllerP13StatusService
FNF:25
FNH:19
DA:68,13
DA:70,13
DA:92,4
DA:94,4
DA:113,13
DA:114,13
DA:117,13
DA:123,0
DA:124,0
DA:125,0
DA:128,0
DA:134,12
DA:137,12
DA:139,1
DA:144,1
DA:156,1
DA:159,2
DA:171,1
DA:174,2
DA:186,1
DA:189,2
DA:207,1
DA:211,1
DA:212,1
DA:213,0
DA:214,2
DA:215,1
DA:232,1
DA:236,1
DA:237,1
DA:239,2
DA:240,1
DA:249,1
DA:253,1
DA:254,2
DA:255,1
DA:264,1
DA:268,1
DA:269,1
DA:274,0
DA:275,0
DA:276,0
DA:277,0
DA:280,0
DA:281,0
DA:282,1
DA:299,1
DA:303,1
DA:304,1
DA:312,0
DA:313,0
DA:314,0
DA:315,1
DA:368,13
DA:369,13
DA:370,13
DA:373,13
DA:378,4
DA:381,4
DA:383,4
DA:386,4
DA:390,2
DA:391,4
DA:392,4
DA:393,2
DA:394,2
DA:395,2
DA:396,2
DA:397,2
DA:398,2
DA:399,4
DA:400,6
DA:402,2
DA:403,2
DA:404,2
DA:405,2
DA:406,2
DA:407,2
DA:408,2
DA:409,2
DA:420,4
DA:422,4
DA:437,4
DA:438,2
DA:441,2
DA:442,2
DA:443,2
DA:444,1
DA:446,2
DA:447,0
DA:448,2
DA:449,2
DA:450,0
DA:451,2
DA:460,4
DA:462,4
DA:463,1
DA:464,1
DA:465,3
DA:466,1
DA:467,1
DA:469,4
DA:470,4
DA:476,1
DA:479,1
DA:482,1
DA:483,0
DA:484,0
DA:487,1
DA:488,0
DA:489,0
DA:492,1
DA:493,0
DA:494,0
DA:495,0
DA:497,0
DA:499,1
DA:500,0
DA:501,0
DA:502,0
DA:505,3
DA:506,1
DA:513,1
DA:516,1
DA:519,1
DA:520,0
DA:521,0
DA:522,0
DA:525,1
DA:526,0
DA:527,0
DA:528,0
DA:531,1
DA:532,0
DA:533,0
DA:536,1
DA:537,0
DA:538,0
DA:541,3
DA:542,1
LF:140
LH:103
end_of_record
TN:
SF:/Users/runner/work/qtpokit/qtpokit/src/lib/statusservice_p.h
FNF:0
FNH:0
DA:20,2
DA:37,2
LF:2
LH:2
end_of_record
